
CLI_StarterCode.elf:     file format elf32-littlearm

Sections:
Idx Name          Size      VMA       LMA       File off  Algn
  0 .text         00004500  00000000  00000000  00010000  2**2
                  CONTENTS, ALLOC, LOAD, READONLY, CODE
  1 .relocate     00000070  20000000  00004500  00020000  2**2
                  CONTENTS, ALLOC, LOAD, DATA
  2 .bss          00000460  20000070  00004570  00020070  2**2
                  ALLOC
  3 .stack        00002000  200004d0  000049d0  00020070  2**0
                  ALLOC
  4 .ARM.attributes 00000028  00000000  00000000  00020070  2**0
                  CONTENTS, READONLY
  5 .comment      00000059  00000000  00000000  00020098  2**0
                  CONTENTS, READONLY
  6 .debug_info   00039187  00000000  00000000  000200f1  2**0
                  CONTENTS, READONLY, DEBUGGING
  7 .debug_abbrev 000042b4  00000000  00000000  00059278  2**0
                  CONTENTS, READONLY, DEBUGGING
  8 .debug_loc    00003461  00000000  00000000  0005d52c  2**0
                  CONTENTS, READONLY, DEBUGGING
  9 .debug_aranges 000009d8  00000000  00000000  0006098d  2**0
                  CONTENTS, READONLY, DEBUGGING
 10 .debug_ranges 00000868  00000000  00000000  00061365  2**0
                  CONTENTS, READONLY, DEBUGGING
 11 .debug_macro  00007d13  00000000  00000000  00061bcd  2**0
                  CONTENTS, READONLY, DEBUGGING
 12 .debug_line   0000f994  00000000  00000000  000698e0  2**0
                  CONTENTS, READONLY, DEBUGGING
 13 .debug_str    0008e516  00000000  00000000  00079274  2**0
                  CONTENTS, READONLY, DEBUGGING
 14 .debug_frame  0000228c  00000000  00000000  0010778c  2**2
                  CONTENTS, READONLY, DEBUGGING

Disassembly of section .text:

00000000 <exception_table>:
       0:	d0 24 00 20 ad 3b 00 00 a5 3c 00 00 a5 3c 00 00     .$. .;...<...<..
	...
      2c:	a5 3c 00 00 00 00 00 00 00 00 00 00 a5 3c 00 00     .<...........<..
      3c:	a5 3c 00 00 a5 3c 00 00 a5 3c 00 00 a5 3c 00 00     .<...<...<...<..
      4c:	d1 03 00 00 a5 3c 00 00 a5 3c 00 00 a5 3c 00 00     .....<...<...<..
      5c:	a5 3c 00 00 a5 3c 00 00 a9 28 00 00 c1 28 00 00     .<...<...(...(..
      6c:	d9 28 00 00 f1 28 00 00 09 29 00 00 21 29 00 00     .(...(...)..!)..
      7c:	b1 14 00 00 c5 14 00 00 d9 14 00 00 69 15 00 00     ............i...
      8c:	7d 15 00 00 91 15 00 00 00 00 00 00 00 00 00 00     }...............
      9c:	e9 02 00 00 a5 3c 00 00 a5 3c 00 00 a5 3c 00 00     .....<...<...<..
      ac:	a5 3c 00 00 00 00 00 00                             .<......

000000b4 <__do_global_dtors_aux>:
      b4:	b510      	push	{r4, lr}
      b6:	4c06      	ldr	r4, [pc, #24]	; (d0 <__do_global_dtors_aux+0x1c>)
      b8:	7823      	ldrb	r3, [r4, #0]
      ba:	2b00      	cmp	r3, #0
      bc:	d107      	bne.n	ce <__do_global_dtors_aux+0x1a>
      be:	4b05      	ldr	r3, [pc, #20]	; (d4 <__do_global_dtors_aux+0x20>)
      c0:	2b00      	cmp	r3, #0
      c2:	d002      	beq.n	ca <__do_global_dtors_aux+0x16>
      c4:	4804      	ldr	r0, [pc, #16]	; (d8 <__do_global_dtors_aux+0x24>)
      c6:	e000      	b.n	ca <__do_global_dtors_aux+0x16>
      c8:	bf00      	nop
      ca:	2301      	movs	r3, #1
      cc:	7023      	strb	r3, [r4, #0]
      ce:	bd10      	pop	{r4, pc}
      d0:	20000070 	.word	0x20000070
      d4:	00000000 	.word	0x00000000
      d8:	00004500 	.word	0x00004500

000000dc <frame_dummy>:
      dc:	4b08      	ldr	r3, [pc, #32]	; (100 <frame_dummy+0x24>)
      de:	b510      	push	{r4, lr}
      e0:	2b00      	cmp	r3, #0
      e2:	d003      	beq.n	ec <frame_dummy+0x10>
      e4:	4907      	ldr	r1, [pc, #28]	; (104 <frame_dummy+0x28>)
      e6:	4808      	ldr	r0, [pc, #32]	; (108 <frame_dummy+0x2c>)
      e8:	e000      	b.n	ec <frame_dummy+0x10>
      ea:	bf00      	nop
      ec:	4807      	ldr	r0, [pc, #28]	; (10c <frame_dummy+0x30>)
      ee:	6803      	ldr	r3, [r0, #0]
      f0:	2b00      	cmp	r3, #0
      f2:	d100      	bne.n	f6 <frame_dummy+0x1a>
      f4:	bd10      	pop	{r4, pc}
      f6:	4b06      	ldr	r3, [pc, #24]	; (110 <frame_dummy+0x34>)
      f8:	2b00      	cmp	r3, #0
      fa:	d0fb      	beq.n	f4 <frame_dummy+0x18>
      fc:	4798      	blx	r3
      fe:	e7f9      	b.n	f4 <frame_dummy+0x18>
     100:	00000000 	.word	0x00000000
     104:	20000074 	.word	0x20000074
     108:	00004500 	.word	0x00004500
     10c:	00004500 	.word	0x00004500
     110:	00000000 	.word	0x00000000

00000114 <adc_is_syncing>:
     114:	b580      	push	{r7, lr}
     116:	b084      	sub	sp, #16
     118:	af00      	add	r7, sp, #0
     11a:	6078      	str	r0, [r7, #4]
     11c:	687b      	ldr	r3, [r7, #4]
     11e:	681b      	ldr	r3, [r3, #0]
     120:	60fb      	str	r3, [r7, #12]
     122:	68fb      	ldr	r3, [r7, #12]
     124:	7e5b      	ldrb	r3, [r3, #25]
     126:	b2db      	uxtb	r3, r3
     128:	b25b      	sxtb	r3, r3
     12a:	2b00      	cmp	r3, #0
     12c:	da01      	bge.n	132 <adc_is_syncing+0x1e>
     12e:	2301      	movs	r3, #1
     130:	e000      	b.n	134 <adc_is_syncing+0x20>
     132:	2300      	movs	r3, #0
     134:	0018      	movs	r0, r3
     136:	46bd      	mov	sp, r7
     138:	b004      	add	sp, #16
     13a:	bd80      	pop	{r7, pc}

0000013c <adc_start_conversion>:
     13c:	b580      	push	{r7, lr}
     13e:	b084      	sub	sp, #16
     140:	af00      	add	r7, sp, #0
     142:	6078      	str	r0, [r7, #4]
     144:	687b      	ldr	r3, [r7, #4]
     146:	681b      	ldr	r3, [r3, #0]
     148:	60fb      	str	r3, [r7, #12]
     14a:	46c0      	nop			; (mov r8, r8)
     14c:	687b      	ldr	r3, [r7, #4]
     14e:	0018      	movs	r0, r3
     150:	4b0b      	ldr	r3, [pc, #44]	; (180 <adc_start_conversion+0x44>)
     152:	4798      	blx	r3
     154:	1e03      	subs	r3, r0, #0
     156:	d1f9      	bne.n	14c <adc_start_conversion+0x10>
     158:	68fb      	ldr	r3, [r7, #12]
     15a:	7b1b      	ldrb	r3, [r3, #12]
     15c:	b2db      	uxtb	r3, r3
     15e:	2202      	movs	r2, #2
     160:	4313      	orrs	r3, r2
     162:	b2da      	uxtb	r2, r3
     164:	68fb      	ldr	r3, [r7, #12]
     166:	731a      	strb	r2, [r3, #12]
     168:	46c0      	nop			; (mov r8, r8)
     16a:	687b      	ldr	r3, [r7, #4]
     16c:	0018      	movs	r0, r3
     16e:	4b04      	ldr	r3, [pc, #16]	; (180 <adc_start_conversion+0x44>)
     170:	4798      	blx	r3
     172:	1e03      	subs	r3, r0, #0
     174:	d1f9      	bne.n	16a <adc_start_conversion+0x2e>
     176:	46c0      	nop			; (mov r8, r8)
     178:	46bd      	mov	sp, r7
     17a:	b004      	add	sp, #16
     17c:	bd80      	pop	{r7, pc}
     17e:	46c0      	nop			; (mov r8, r8)
     180:	00000115 	.word	0x00000115

00000184 <adc_disable_interrupt>:
     184:	b580      	push	{r7, lr}
     186:	b084      	sub	sp, #16
     188:	af00      	add	r7, sp, #0
     18a:	6078      	str	r0, [r7, #4]
     18c:	000a      	movs	r2, r1
     18e:	1cfb      	adds	r3, r7, #3
     190:	701a      	strb	r2, [r3, #0]
     192:	687b      	ldr	r3, [r7, #4]
     194:	681b      	ldr	r3, [r3, #0]
     196:	60fb      	str	r3, [r7, #12]
     198:	68fb      	ldr	r3, [r7, #12]
     19a:	1cfa      	adds	r2, r7, #3
     19c:	7812      	ldrb	r2, [r2, #0]
     19e:	759a      	strb	r2, [r3, #22]
     1a0:	46c0      	nop			; (mov r8, r8)
     1a2:	46bd      	mov	sp, r7
     1a4:	b004      	add	sp, #16
     1a6:	bd80      	pop	{r7, pc}

000001a8 <_adc_interrupt_handler>:
     1a8:	b580      	push	{r7, lr}
     1aa:	b084      	sub	sp, #16
     1ac:	af00      	add	r7, sp, #0
     1ae:	0002      	movs	r2, r0
     1b0:	1dfb      	adds	r3, r7, #7
     1b2:	701a      	strb	r2, [r3, #0]
     1b4:	1dfb      	adds	r3, r7, #7
     1b6:	781a      	ldrb	r2, [r3, #0]
     1b8:	4b47      	ldr	r3, [pc, #284]	; (2d8 <_adc_interrupt_handler+0x130>)
     1ba:	0092      	lsls	r2, r2, #2
     1bc:	58d3      	ldr	r3, [r2, r3]
     1be:	60fb      	str	r3, [r7, #12]
     1c0:	68fb      	ldr	r3, [r7, #12]
     1c2:	681b      	ldr	r3, [r3, #0]
     1c4:	7e1b      	ldrb	r3, [r3, #24]
     1c6:	b2da      	uxtb	r2, r3
     1c8:	68fb      	ldr	r3, [r7, #12]
     1ca:	681b      	ldr	r3, [r3, #0]
     1cc:	7ddb      	ldrb	r3, [r3, #23]
     1ce:	b2db      	uxtb	r3, r3
     1d0:	4013      	ands	r3, r2
     1d2:	b2db      	uxtb	r3, r3
     1d4:	60bb      	str	r3, [r7, #8]
     1d6:	68bb      	ldr	r3, [r7, #8]
     1d8:	2201      	movs	r2, #1
     1da:	4013      	ands	r3, r2
     1dc:	d045      	beq.n	26a <_adc_interrupt_handler+0xc2>
     1de:	68fb      	ldr	r3, [r7, #12]
     1e0:	681b      	ldr	r3, [r3, #0]
     1e2:	2201      	movs	r2, #1
     1e4:	761a      	strb	r2, [r3, #24]
     1e6:	46c0      	nop			; (mov r8, r8)
     1e8:	68fb      	ldr	r3, [r7, #12]
     1ea:	0018      	movs	r0, r3
     1ec:	4b3b      	ldr	r3, [pc, #236]	; (2dc <_adc_interrupt_handler+0x134>)
     1ee:	4798      	blx	r3
     1f0:	1e03      	subs	r3, r0, #0
     1f2:	d1f9      	bne.n	1e8 <_adc_interrupt_handler+0x40>
     1f4:	68fb      	ldr	r3, [r7, #12]
     1f6:	695b      	ldr	r3, [r3, #20]
     1f8:	1c99      	adds	r1, r3, #2
     1fa:	68fa      	ldr	r2, [r7, #12]
     1fc:	6151      	str	r1, [r2, #20]
     1fe:	68fa      	ldr	r2, [r7, #12]
     200:	6812      	ldr	r2, [r2, #0]
     202:	8b52      	ldrh	r2, [r2, #26]
     204:	b292      	uxth	r2, r2
     206:	801a      	strh	r2, [r3, #0]
     208:	68fb      	ldr	r3, [r7, #12]
     20a:	8b1b      	ldrh	r3, [r3, #24]
     20c:	b29b      	uxth	r3, r3
     20e:	3b01      	subs	r3, #1
     210:	b29b      	uxth	r3, r3
     212:	68fa      	ldr	r2, [r7, #12]
     214:	1c19      	adds	r1, r3, #0
     216:	8311      	strh	r1, [r2, #24]
     218:	2b00      	cmp	r3, #0
     21a:	d008      	beq.n	22e <_adc_interrupt_handler+0x86>
     21c:	68fb      	ldr	r3, [r7, #12]
     21e:	7f5b      	ldrb	r3, [r3, #29]
     220:	2b00      	cmp	r3, #0
     222:	d022      	beq.n	26a <_adc_interrupt_handler+0xc2>
     224:	68fb      	ldr	r3, [r7, #12]
     226:	0018      	movs	r0, r3
     228:	4b2d      	ldr	r3, [pc, #180]	; (2e0 <_adc_interrupt_handler+0x138>)
     22a:	4798      	blx	r3
     22c:	e01d      	b.n	26a <_adc_interrupt_handler+0xc2>
     22e:	68fb      	ldr	r3, [r7, #12]
     230:	2101      	movs	r1, #1
     232:	0018      	movs	r0, r3
     234:	4b2b      	ldr	r3, [pc, #172]	; (2e4 <_adc_interrupt_handler+0x13c>)
     236:	4798      	blx	r3
     238:	68fb      	ldr	r3, [r7, #12]
     23a:	7f1b      	ldrb	r3, [r3, #28]
     23c:	b2db      	uxtb	r3, r3
     23e:	2b05      	cmp	r3, #5
     240:	d113      	bne.n	26a <_adc_interrupt_handler+0xc2>
     242:	68fb      	ldr	r3, [r7, #12]
     244:	2200      	movs	r2, #0
     246:	771a      	strb	r2, [r3, #28]
     248:	68fb      	ldr	r3, [r7, #12]
     24a:	7edb      	ldrb	r3, [r3, #27]
     24c:	001a      	movs	r2, r3
     24e:	2301      	movs	r3, #1
     250:	4013      	ands	r3, r2
     252:	d00a      	beq.n	26a <_adc_interrupt_handler+0xc2>
     254:	68fb      	ldr	r3, [r7, #12]
     256:	7e9b      	ldrb	r3, [r3, #26]
     258:	001a      	movs	r2, r3
     25a:	2301      	movs	r3, #1
     25c:	4013      	ands	r3, r2
     25e:	d004      	beq.n	26a <_adc_interrupt_handler+0xc2>
     260:	68fb      	ldr	r3, [r7, #12]
     262:	689b      	ldr	r3, [r3, #8]
     264:	68fa      	ldr	r2, [r7, #12]
     266:	0010      	movs	r0, r2
     268:	4798      	blx	r3
     26a:	68bb      	ldr	r3, [r7, #8]
     26c:	2204      	movs	r2, #4
     26e:	4013      	ands	r3, r2
     270:	d014      	beq.n	29c <_adc_interrupt_handler+0xf4>
     272:	68fb      	ldr	r3, [r7, #12]
     274:	681b      	ldr	r3, [r3, #0]
     276:	2204      	movs	r2, #4
     278:	761a      	strb	r2, [r3, #24]
     27a:	68fb      	ldr	r3, [r7, #12]
     27c:	7edb      	ldrb	r3, [r3, #27]
     27e:	001a      	movs	r2, r3
     280:	2302      	movs	r3, #2
     282:	4013      	ands	r3, r2
     284:	d00a      	beq.n	29c <_adc_interrupt_handler+0xf4>
     286:	68fb      	ldr	r3, [r7, #12]
     288:	7e9b      	ldrb	r3, [r3, #26]
     28a:	001a      	movs	r2, r3
     28c:	2302      	movs	r3, #2
     28e:	4013      	ands	r3, r2
     290:	d004      	beq.n	29c <_adc_interrupt_handler+0xf4>
     292:	68fb      	ldr	r3, [r7, #12]
     294:	68db      	ldr	r3, [r3, #12]
     296:	68fa      	ldr	r2, [r7, #12]
     298:	0010      	movs	r0, r2
     29a:	4798      	blx	r3
     29c:	68bb      	ldr	r3, [r7, #8]
     29e:	2202      	movs	r2, #2
     2a0:	4013      	ands	r3, r2
     2a2:	d014      	beq.n	2ce <_adc_interrupt_handler+0x126>
     2a4:	68fb      	ldr	r3, [r7, #12]
     2a6:	681b      	ldr	r3, [r3, #0]
     2a8:	2202      	movs	r2, #2
     2aa:	761a      	strb	r2, [r3, #24]
     2ac:	68fb      	ldr	r3, [r7, #12]
     2ae:	7edb      	ldrb	r3, [r3, #27]
     2b0:	001a      	movs	r2, r3
     2b2:	2304      	movs	r3, #4
     2b4:	4013      	ands	r3, r2
     2b6:	d00a      	beq.n	2ce <_adc_interrupt_handler+0x126>
     2b8:	68fb      	ldr	r3, [r7, #12]
     2ba:	7e9b      	ldrb	r3, [r3, #26]
     2bc:	001a      	movs	r2, r3
     2be:	2304      	movs	r3, #4
     2c0:	4013      	ands	r3, r2
     2c2:	d004      	beq.n	2ce <_adc_interrupt_handler+0x126>
     2c4:	68fb      	ldr	r3, [r7, #12]
     2c6:	691b      	ldr	r3, [r3, #16]
     2c8:	68fa      	ldr	r2, [r7, #12]
     2ca:	0010      	movs	r0, r2
     2cc:	4798      	blx	r3
     2ce:	46c0      	nop			; (mov r8, r8)
     2d0:	46bd      	mov	sp, r7
     2d2:	b004      	add	sp, #16
     2d4:	bd80      	pop	{r7, pc}
     2d6:	46c0      	nop			; (mov r8, r8)
     2d8:	200000d4 	.word	0x200000d4
     2dc:	00000115 	.word	0x00000115
     2e0:	0000013d 	.word	0x0000013d
     2e4:	00000185 	.word	0x00000185

000002e8 <ADC_Handler>:
     2e8:	b580      	push	{r7, lr}
     2ea:	af00      	add	r7, sp, #0
     2ec:	2000      	movs	r0, #0
     2ee:	4b02      	ldr	r3, [pc, #8]	; (2f8 <ADC_Handler+0x10>)
     2f0:	4798      	blx	r3
     2f2:	46c0      	nop			; (mov r8, r8)
     2f4:	46bd      	mov	sp, r7
     2f6:	bd80      	pop	{r7, pc}
     2f8:	000001a9 	.word	0x000001a9

000002fc <_rtc_interrupt_handler>:
     2fc:	b580      	push	{r7, lr}
     2fe:	b086      	sub	sp, #24
     300:	af00      	add	r7, sp, #0
     302:	6078      	str	r0, [r7, #4]
     304:	4b31      	ldr	r3, [pc, #196]	; (3cc <_rtc_interrupt_handler+0xd0>)
     306:	687a      	ldr	r2, [r7, #4]
     308:	0092      	lsls	r2, r2, #2
     30a:	58d3      	ldr	r3, [r2, r3]
     30c:	617b      	str	r3, [r7, #20]
     30e:	697b      	ldr	r3, [r7, #20]
     310:	681b      	ldr	r3, [r3, #0]
     312:	613b      	str	r3, [r7, #16]
     314:	230e      	movs	r3, #14
     316:	18fb      	adds	r3, r7, r3
     318:	697a      	ldr	r2, [r7, #20]
     31a:	8ad2      	ldrh	r2, [r2, #22]
     31c:	801a      	strh	r2, [r3, #0]
     31e:	697b      	ldr	r3, [r7, #20]
     320:	8a9b      	ldrh	r3, [r3, #20]
     322:	b29a      	uxth	r2, r3
     324:	230e      	movs	r3, #14
     326:	18fb      	adds	r3, r7, r3
     328:	210e      	movs	r1, #14
     32a:	1879      	adds	r1, r7, r1
     32c:	8809      	ldrh	r1, [r1, #0]
     32e:	400a      	ands	r2, r1
     330:	801a      	strh	r2, [r3, #0]
     332:	693b      	ldr	r3, [r7, #16]
     334:	7a1b      	ldrb	r3, [r3, #8]
     336:	b2da      	uxtb	r2, r3
     338:	230c      	movs	r3, #12
     33a:	18fb      	adds	r3, r7, r3
     33c:	801a      	strh	r2, [r3, #0]
     33e:	693b      	ldr	r3, [r7, #16]
     340:	79db      	ldrb	r3, [r3, #7]
     342:	b2db      	uxtb	r3, r3
     344:	b29a      	uxth	r2, r3
     346:	230c      	movs	r3, #12
     348:	18fb      	adds	r3, r7, r3
     34a:	210c      	movs	r1, #12
     34c:	1879      	adds	r1, r7, r1
     34e:	8809      	ldrh	r1, [r1, #0]
     350:	400a      	ands	r2, r1
     352:	801a      	strh	r2, [r3, #0]
     354:	230c      	movs	r3, #12
     356:	18fb      	adds	r3, r7, r3
     358:	881b      	ldrh	r3, [r3, #0]
     35a:	2280      	movs	r2, #128	; 0x80
     35c:	4013      	ands	r3, r2
     35e:	d00c      	beq.n	37a <_rtc_interrupt_handler+0x7e>
     360:	230e      	movs	r3, #14
     362:	18fb      	adds	r3, r7, r3
     364:	881b      	ldrh	r3, [r3, #0]
     366:	2204      	movs	r2, #4
     368:	4013      	ands	r3, r2
     36a:	d002      	beq.n	372 <_rtc_interrupt_handler+0x76>
     36c:	697b      	ldr	r3, [r7, #20]
     36e:	691b      	ldr	r3, [r3, #16]
     370:	4798      	blx	r3
     372:	693b      	ldr	r3, [r7, #16]
     374:	2280      	movs	r2, #128	; 0x80
     376:	721a      	strb	r2, [r3, #8]
     378:	e024      	b.n	3c4 <_rtc_interrupt_handler+0xc8>
     37a:	230c      	movs	r3, #12
     37c:	18fb      	adds	r3, r7, r3
     37e:	881b      	ldrh	r3, [r3, #0]
     380:	2201      	movs	r2, #1
     382:	4013      	ands	r3, r2
     384:	d00c      	beq.n	3a0 <_rtc_interrupt_handler+0xa4>
     386:	230e      	movs	r3, #14
     388:	18fb      	adds	r3, r7, r3
     38a:	881b      	ldrh	r3, [r3, #0]
     38c:	2201      	movs	r2, #1
     38e:	4013      	ands	r3, r2
     390:	d002      	beq.n	398 <_rtc_interrupt_handler+0x9c>
     392:	697b      	ldr	r3, [r7, #20]
     394:	689b      	ldr	r3, [r3, #8]
     396:	4798      	blx	r3
     398:	693b      	ldr	r3, [r7, #16]
     39a:	2201      	movs	r2, #1
     39c:	721a      	strb	r2, [r3, #8]
     39e:	e011      	b.n	3c4 <_rtc_interrupt_handler+0xc8>
     3a0:	230c      	movs	r3, #12
     3a2:	18fb      	adds	r3, r7, r3
     3a4:	881b      	ldrh	r3, [r3, #0]
     3a6:	2202      	movs	r2, #2
     3a8:	4013      	ands	r3, r2
     3aa:	d00b      	beq.n	3c4 <_rtc_interrupt_handler+0xc8>
     3ac:	230e      	movs	r3, #14
     3ae:	18fb      	adds	r3, r7, r3
     3b0:	881b      	ldrh	r3, [r3, #0]
     3b2:	2202      	movs	r2, #2
     3b4:	4013      	ands	r3, r2
     3b6:	d002      	beq.n	3be <_rtc_interrupt_handler+0xc2>
     3b8:	697b      	ldr	r3, [r7, #20]
     3ba:	68db      	ldr	r3, [r3, #12]
     3bc:	4798      	blx	r3
     3be:	693b      	ldr	r3, [r7, #16]
     3c0:	2202      	movs	r2, #2
     3c2:	721a      	strb	r2, [r3, #8]
     3c4:	46c0      	nop			; (mov r8, r8)
     3c6:	46bd      	mov	sp, r7
     3c8:	b006      	add	sp, #24
     3ca:	bd80      	pop	{r7, pc}
     3cc:	200000d8 	.word	0x200000d8

000003d0 <RTC_Handler>:
     3d0:	b580      	push	{r7, lr}
     3d2:	af00      	add	r7, sp, #0
     3d4:	2000      	movs	r0, #0
     3d6:	4b02      	ldr	r3, [pc, #8]	; (3e0 <RTC_Handler+0x10>)
     3d8:	4798      	blx	r3
     3da:	46c0      	nop			; (mov r8, r8)
     3dc:	46bd      	mov	sp, r7
     3de:	bd80      	pop	{r7, pc}
     3e0:	000002fd 	.word	0x000002fd

000003e4 <system_gclk_chan_get_config_defaults>:
     3e4:	b580      	push	{r7, lr}
     3e6:	b082      	sub	sp, #8
     3e8:	af00      	add	r7, sp, #0
     3ea:	6078      	str	r0, [r7, #4]
     3ec:	687b      	ldr	r3, [r7, #4]
     3ee:	2200      	movs	r2, #0
     3f0:	701a      	strb	r2, [r3, #0]
     3f2:	46c0      	nop			; (mov r8, r8)
     3f4:	46bd      	mov	sp, r7
     3f6:	b002      	add	sp, #8
     3f8:	bd80      	pop	{r7, pc}

000003fa <long_division>:
     3fa:	b5f0      	push	{r4, r5, r6, r7, lr}
     3fc:	b08d      	sub	sp, #52	; 0x34
     3fe:	af00      	add	r7, sp, #0
     400:	60b8      	str	r0, [r7, #8]
     402:	60f9      	str	r1, [r7, #12]
     404:	603a      	str	r2, [r7, #0]
     406:	607b      	str	r3, [r7, #4]
     408:	2300      	movs	r3, #0
     40a:	2400      	movs	r4, #0
     40c:	623b      	str	r3, [r7, #32]
     40e:	627c      	str	r4, [r7, #36]	; 0x24
     410:	2300      	movs	r3, #0
     412:	2400      	movs	r4, #0
     414:	61bb      	str	r3, [r7, #24]
     416:	61fc      	str	r4, [r7, #28]
     418:	233f      	movs	r3, #63	; 0x3f
     41a:	62fb      	str	r3, [r7, #44]	; 0x2c
     41c:	e053      	b.n	4c6 <long_division+0xcc>
     41e:	6afb      	ldr	r3, [r7, #44]	; 0x2c
     420:	3b20      	subs	r3, #32
     422:	2b00      	cmp	r3, #0
     424:	db04      	blt.n	430 <long_division+0x36>
     426:	2201      	movs	r2, #1
     428:	409a      	lsls	r2, r3
     42a:	0013      	movs	r3, r2
     42c:	617b      	str	r3, [r7, #20]
     42e:	e00b      	b.n	448 <long_division+0x4e>
     430:	6afb      	ldr	r3, [r7, #44]	; 0x2c
     432:	2220      	movs	r2, #32
     434:	1ad3      	subs	r3, r2, r3
     436:	2201      	movs	r2, #1
     438:	40da      	lsrs	r2, r3
     43a:	0013      	movs	r3, r2
     43c:	2100      	movs	r1, #0
     43e:	6afa      	ldr	r2, [r7, #44]	; 0x2c
     440:	4091      	lsls	r1, r2
     442:	000a      	movs	r2, r1
     444:	4313      	orrs	r3, r2
     446:	617b      	str	r3, [r7, #20]
     448:	2201      	movs	r2, #1
     44a:	6afb      	ldr	r3, [r7, #44]	; 0x2c
     44c:	409a      	lsls	r2, r3
     44e:	0013      	movs	r3, r2
     450:	613b      	str	r3, [r7, #16]
     452:	69bb      	ldr	r3, [r7, #24]
     454:	69fc      	ldr	r4, [r7, #28]
     456:	18db      	adds	r3, r3, r3
     458:	4164      	adcs	r4, r4
     45a:	61bb      	str	r3, [r7, #24]
     45c:	61fc      	str	r4, [r7, #28]
     45e:	68bb      	ldr	r3, [r7, #8]
     460:	693a      	ldr	r2, [r7, #16]
     462:	401a      	ands	r2, r3
     464:	0015      	movs	r5, r2
     466:	68fb      	ldr	r3, [r7, #12]
     468:	697a      	ldr	r2, [r7, #20]
     46a:	401a      	ands	r2, r3
     46c:	0016      	movs	r6, r2
     46e:	002b      	movs	r3, r5
     470:	4333      	orrs	r3, r6
     472:	d007      	beq.n	484 <long_division+0x8a>
     474:	69bb      	ldr	r3, [r7, #24]
     476:	2201      	movs	r2, #1
     478:	4313      	orrs	r3, r2
     47a:	61bb      	str	r3, [r7, #24]
     47c:	69fb      	ldr	r3, [r7, #28]
     47e:	2200      	movs	r2, #0
     480:	4313      	orrs	r3, r2
     482:	61fb      	str	r3, [r7, #28]
     484:	687a      	ldr	r2, [r7, #4]
     486:	69fb      	ldr	r3, [r7, #28]
     488:	429a      	cmp	r2, r3
     48a:	d819      	bhi.n	4c0 <long_division+0xc6>
     48c:	687a      	ldr	r2, [r7, #4]
     48e:	69fb      	ldr	r3, [r7, #28]
     490:	429a      	cmp	r2, r3
     492:	d103      	bne.n	49c <long_division+0xa2>
     494:	683a      	ldr	r2, [r7, #0]
     496:	69bb      	ldr	r3, [r7, #24]
     498:	429a      	cmp	r2, r3
     49a:	d811      	bhi.n	4c0 <long_division+0xc6>
     49c:	69b9      	ldr	r1, [r7, #24]
     49e:	69fa      	ldr	r2, [r7, #28]
     4a0:	683b      	ldr	r3, [r7, #0]
     4a2:	687c      	ldr	r4, [r7, #4]
     4a4:	1ac9      	subs	r1, r1, r3
     4a6:	41a2      	sbcs	r2, r4
     4a8:	000b      	movs	r3, r1
     4aa:	0014      	movs	r4, r2
     4ac:	61bb      	str	r3, [r7, #24]
     4ae:	61fc      	str	r4, [r7, #28]
     4b0:	6a3a      	ldr	r2, [r7, #32]
     4b2:	693b      	ldr	r3, [r7, #16]
     4b4:	4313      	orrs	r3, r2
     4b6:	623b      	str	r3, [r7, #32]
     4b8:	6a7a      	ldr	r2, [r7, #36]	; 0x24
     4ba:	697b      	ldr	r3, [r7, #20]
     4bc:	4313      	orrs	r3, r2
     4be:	627b      	str	r3, [r7, #36]	; 0x24
     4c0:	6afb      	ldr	r3, [r7, #44]	; 0x2c
     4c2:	3b01      	subs	r3, #1
     4c4:	62fb      	str	r3, [r7, #44]	; 0x2c
     4c6:	6afb      	ldr	r3, [r7, #44]	; 0x2c
     4c8:	2b00      	cmp	r3, #0
     4ca:	daa8      	bge.n	41e <long_division+0x24>
     4cc:	6a3b      	ldr	r3, [r7, #32]
     4ce:	6a7c      	ldr	r4, [r7, #36]	; 0x24
     4d0:	0018      	movs	r0, r3
     4d2:	0021      	movs	r1, r4
     4d4:	46bd      	mov	sp, r7
     4d6:	b00d      	add	sp, #52	; 0x34
     4d8:	bdf0      	pop	{r4, r5, r6, r7, pc}

000004da <_sercom_get_sync_baud_val>:
     4da:	b580      	push	{r7, lr}
     4dc:	b086      	sub	sp, #24
     4de:	af00      	add	r7, sp, #0
     4e0:	60f8      	str	r0, [r7, #12]
     4e2:	60b9      	str	r1, [r7, #8]
     4e4:	607a      	str	r2, [r7, #4]
     4e6:	2316      	movs	r3, #22
     4e8:	18fb      	adds	r3, r7, r3
     4ea:	2200      	movs	r2, #0
     4ec:	801a      	strh	r2, [r3, #0]
     4ee:	68bb      	ldr	r3, [r7, #8]
     4f0:	613b      	str	r3, [r7, #16]
     4f2:	68bb      	ldr	r3, [r7, #8]
     4f4:	085a      	lsrs	r2, r3, #1
     4f6:	68fb      	ldr	r3, [r7, #12]
     4f8:	429a      	cmp	r2, r3
     4fa:	d201      	bcs.n	500 <_sercom_get_sync_baud_val+0x26>
     4fc:	2340      	movs	r3, #64	; 0x40
     4fe:	e026      	b.n	54e <_sercom_get_sync_baud_val+0x74>
     500:	68bb      	ldr	r3, [r7, #8]
     502:	085b      	lsrs	r3, r3, #1
     504:	613b      	str	r3, [r7, #16]
     506:	e00a      	b.n	51e <_sercom_get_sync_baud_val+0x44>
     508:	693a      	ldr	r2, [r7, #16]
     50a:	68fb      	ldr	r3, [r7, #12]
     50c:	1ad3      	subs	r3, r2, r3
     50e:	613b      	str	r3, [r7, #16]
     510:	2316      	movs	r3, #22
     512:	18fb      	adds	r3, r7, r3
     514:	881a      	ldrh	r2, [r3, #0]
     516:	2316      	movs	r3, #22
     518:	18fb      	adds	r3, r7, r3
     51a:	3201      	adds	r2, #1
     51c:	801a      	strh	r2, [r3, #0]
     51e:	693a      	ldr	r2, [r7, #16]
     520:	68fb      	ldr	r3, [r7, #12]
     522:	429a      	cmp	r2, r3
     524:	d2f0      	bcs.n	508 <_sercom_get_sync_baud_val+0x2e>
     526:	2316      	movs	r3, #22
     528:	18fb      	adds	r3, r7, r3
     52a:	2216      	movs	r2, #22
     52c:	18ba      	adds	r2, r7, r2
     52e:	8812      	ldrh	r2, [r2, #0]
     530:	3a01      	subs	r2, #1
     532:	801a      	strh	r2, [r3, #0]
     534:	2316      	movs	r3, #22
     536:	18fb      	adds	r3, r7, r3
     538:	881b      	ldrh	r3, [r3, #0]
     53a:	2bff      	cmp	r3, #255	; 0xff
     53c:	d901      	bls.n	542 <_sercom_get_sync_baud_val+0x68>
     53e:	2340      	movs	r3, #64	; 0x40
     540:	e005      	b.n	54e <_sercom_get_sync_baud_val+0x74>
     542:	687b      	ldr	r3, [r7, #4]
     544:	2216      	movs	r2, #22
     546:	18ba      	adds	r2, r7, r2
     548:	8812      	ldrh	r2, [r2, #0]
     54a:	801a      	strh	r2, [r3, #0]
     54c:	2300      	movs	r3, #0
     54e:	0018      	movs	r0, r3
     550:	46bd      	mov	sp, r7
     552:	b006      	add	sp, #24
     554:	bd80      	pop	{r7, pc}
	...

00000558 <_sercom_get_async_baud_val>:
     558:	b5f0      	push	{r4, r5, r6, r7, lr}
     55a:	b0a1      	sub	sp, #132	; 0x84
     55c:	af00      	add	r7, sp, #0
     55e:	64f8      	str	r0, [r7, #76]	; 0x4c
     560:	64b9      	str	r1, [r7, #72]	; 0x48
     562:	647a      	str	r2, [r7, #68]	; 0x44
     564:	2243      	movs	r2, #67	; 0x43
     566:	18ba      	adds	r2, r7, r2
     568:	7013      	strb	r3, [r2, #0]
     56a:	2300      	movs	r3, #0
     56c:	2400      	movs	r4, #0
     56e:	673b      	str	r3, [r7, #112]	; 0x70
     570:	677c      	str	r4, [r7, #116]	; 0x74
     572:	2300      	movs	r3, #0
     574:	2400      	movs	r4, #0
     576:	66bb      	str	r3, [r7, #104]	; 0x68
     578:	66fc      	str	r4, [r7, #108]	; 0x6c
     57a:	2300      	movs	r3, #0
     57c:	2400      	movs	r4, #0
     57e:	67bb      	str	r3, [r7, #120]	; 0x78
     580:	67fc      	str	r4, [r7, #124]	; 0x7c
     582:	2300      	movs	r3, #0
     584:	667b      	str	r3, [r7, #100]	; 0x64
     586:	2358      	movs	r3, #88	; 0x58
     588:	2240      	movs	r2, #64	; 0x40
     58a:	4694      	mov	ip, r2
     58c:	44bc      	add	ip, r7
     58e:	4463      	add	r3, ip
     590:	781a      	ldrb	r2, [r3, #0]
     592:	6cfb      	ldr	r3, [r7, #76]	; 0x4c
     594:	435a      	muls	r2, r3
     596:	6cbb      	ldr	r3, [r7, #72]	; 0x48
     598:	429a      	cmp	r2, r3
     59a:	d901      	bls.n	5a0 <_sercom_get_async_baud_val+0x48>
     59c:	2340      	movs	r3, #64	; 0x40
     59e:	e0b3      	b.n	708 <_sercom_get_async_baud_val+0x1b0>
     5a0:	2343      	movs	r3, #67	; 0x43
     5a2:	18fb      	adds	r3, r7, r3
     5a4:	781b      	ldrb	r3, [r3, #0]
     5a6:	2b00      	cmp	r3, #0
     5a8:	d13d      	bne.n	626 <_sercom_get_async_baud_val+0xce>
     5aa:	2358      	movs	r3, #88	; 0x58
     5ac:	2240      	movs	r2, #64	; 0x40
     5ae:	4694      	mov	ip, r2
     5b0:	44bc      	add	ip, r7
     5b2:	4463      	add	r3, ip
     5b4:	781b      	ldrb	r3, [r3, #0]
     5b6:	b2db      	uxtb	r3, r3
     5b8:	613b      	str	r3, [r7, #16]
     5ba:	2300      	movs	r3, #0
     5bc:	617b      	str	r3, [r7, #20]
     5be:	6cfb      	ldr	r3, [r7, #76]	; 0x4c
     5c0:	60bb      	str	r3, [r7, #8]
     5c2:	2300      	movs	r3, #0
     5c4:	60fb      	str	r3, [r7, #12]
     5c6:	4c52      	ldr	r4, [pc, #328]	; (710 <_sercom_get_async_baud_val+0x1b8>)
     5c8:	68ba      	ldr	r2, [r7, #8]
     5ca:	68fb      	ldr	r3, [r7, #12]
     5cc:	6938      	ldr	r0, [r7, #16]
     5ce:	6979      	ldr	r1, [r7, #20]
     5d0:	47a0      	blx	r4
     5d2:	0003      	movs	r3, r0
     5d4:	000c      	movs	r4, r1
     5d6:	001b      	movs	r3, r3
     5d8:	65fb      	str	r3, [r7, #92]	; 0x5c
     5da:	2300      	movs	r3, #0
     5dc:	65bb      	str	r3, [r7, #88]	; 0x58
     5de:	6cbb      	ldr	r3, [r7, #72]	; 0x48
     5e0:	603b      	str	r3, [r7, #0]
     5e2:	2300      	movs	r3, #0
     5e4:	607b      	str	r3, [r7, #4]
     5e6:	6db8      	ldr	r0, [r7, #88]	; 0x58
     5e8:	6df9      	ldr	r1, [r7, #92]	; 0x5c
     5ea:	683a      	ldr	r2, [r7, #0]
     5ec:	687b      	ldr	r3, [r7, #4]
     5ee:	4c49      	ldr	r4, [pc, #292]	; (714 <_sercom_get_async_baud_val+0x1bc>)
     5f0:	47a0      	blx	r4
     5f2:	0003      	movs	r3, r0
     5f4:	000c      	movs	r4, r1
     5f6:	673b      	str	r3, [r7, #112]	; 0x70
     5f8:	677c      	str	r4, [r7, #116]	; 0x74
     5fa:	2100      	movs	r1, #0
     5fc:	2201      	movs	r2, #1
     5fe:	6f3b      	ldr	r3, [r7, #112]	; 0x70
     600:	6f7c      	ldr	r4, [r7, #116]	; 0x74
     602:	1ac9      	subs	r1, r1, r3
     604:	41a2      	sbcs	r2, r4
     606:	000b      	movs	r3, r1
     608:	0014      	movs	r4, r2
     60a:	66bb      	str	r3, [r7, #104]	; 0x68
     60c:	66fc      	str	r4, [r7, #108]	; 0x6c
     60e:	6ebb      	ldr	r3, [r7, #104]	; 0x68
     610:	0c1b      	lsrs	r3, r3, #16
     612:	6efa      	ldr	r2, [r7, #108]	; 0x6c
     614:	0416      	lsls	r6, r2, #16
     616:	431e      	orrs	r6, r3
     618:	6ebb      	ldr	r3, [r7, #104]	; 0x68
     61a:	041d      	lsls	r5, r3, #16
     61c:	0033      	movs	r3, r6
     61e:	67bb      	str	r3, [r7, #120]	; 0x78
     620:	2300      	movs	r3, #0
     622:	67fb      	str	r3, [r7, #124]	; 0x7c
     624:	e06a      	b.n	6fc <_sercom_get_async_baud_val+0x1a4>
     626:	2343      	movs	r3, #67	; 0x43
     628:	18fb      	adds	r3, r7, r3
     62a:	781b      	ldrb	r3, [r3, #0]
     62c:	2b01      	cmp	r3, #1
     62e:	d165      	bne.n	6fc <_sercom_get_async_baud_val+0x1a4>
     630:	6cfb      	ldr	r3, [r7, #76]	; 0x4c
     632:	633b      	str	r3, [r7, #48]	; 0x30
     634:	2300      	movs	r3, #0
     636:	637b      	str	r3, [r7, #52]	; 0x34
     638:	2358      	movs	r3, #88	; 0x58
     63a:	2240      	movs	r2, #64	; 0x40
     63c:	4694      	mov	ip, r2
     63e:	44bc      	add	ip, r7
     640:	4463      	add	r3, ip
     642:	781b      	ldrb	r3, [r3, #0]
     644:	b2db      	uxtb	r3, r3
     646:	62bb      	str	r3, [r7, #40]	; 0x28
     648:	2300      	movs	r3, #0
     64a:	62fb      	str	r3, [r7, #44]	; 0x2c
     64c:	4c30      	ldr	r4, [pc, #192]	; (710 <_sercom_get_async_baud_val+0x1b8>)
     64e:	6aba      	ldr	r2, [r7, #40]	; 0x28
     650:	6afb      	ldr	r3, [r7, #44]	; 0x2c
     652:	6b38      	ldr	r0, [r7, #48]	; 0x30
     654:	6b79      	ldr	r1, [r7, #52]	; 0x34
     656:	47a0      	blx	r4
     658:	0003      	movs	r3, r0
     65a:	000c      	movs	r4, r1
     65c:	65bb      	str	r3, [r7, #88]	; 0x58
     65e:	65fc      	str	r4, [r7, #92]	; 0x5c
     660:	6cbb      	ldr	r3, [r7, #72]	; 0x48
     662:	623b      	str	r3, [r7, #32]
     664:	2300      	movs	r3, #0
     666:	627b      	str	r3, [r7, #36]	; 0x24
     668:	6dbb      	ldr	r3, [r7, #88]	; 0x58
     66a:	6dfc      	ldr	r4, [r7, #92]	; 0x5c
     66c:	001a      	movs	r2, r3
     66e:	0023      	movs	r3, r4
     670:	6a38      	ldr	r0, [r7, #32]
     672:	6a79      	ldr	r1, [r7, #36]	; 0x24
     674:	4c27      	ldr	r4, [pc, #156]	; (714 <_sercom_get_async_baud_val+0x1bc>)
     676:	47a0      	blx	r4
     678:	0003      	movs	r3, r0
     67a:	000c      	movs	r4, r1
     67c:	667b      	str	r3, [r7, #100]	; 0x64
     67e:	6e7a      	ldr	r2, [r7, #100]	; 0x64
     680:	2380      	movs	r3, #128	; 0x80
     682:	019b      	lsls	r3, r3, #6
     684:	429a      	cmp	r2, r3
     686:	d901      	bls.n	68c <_sercom_get_async_baud_val+0x134>
     688:	2340      	movs	r3, #64	; 0x40
     68a:	e03d      	b.n	708 <_sercom_get_async_baud_val+0x1b0>
     68c:	6cbb      	ldr	r3, [r7, #72]	; 0x48
     68e:	61bb      	str	r3, [r7, #24]
     690:	2300      	movs	r3, #0
     692:	61fb      	str	r3, [r7, #28]
     694:	69b9      	ldr	r1, [r7, #24]
     696:	69fa      	ldr	r2, [r7, #28]
     698:	000b      	movs	r3, r1
     69a:	0f5b      	lsrs	r3, r3, #29
     69c:	0010      	movs	r0, r2
     69e:	00c0      	lsls	r0, r0, #3
     6a0:	63f8      	str	r0, [r7, #60]	; 0x3c
     6a2:	6bf8      	ldr	r0, [r7, #60]	; 0x3c
     6a4:	4318      	orrs	r0, r3
     6a6:	63f8      	str	r0, [r7, #60]	; 0x3c
     6a8:	000b      	movs	r3, r1
     6aa:	00db      	lsls	r3, r3, #3
     6ac:	63bb      	str	r3, [r7, #56]	; 0x38
     6ae:	6dbb      	ldr	r3, [r7, #88]	; 0x58
     6b0:	6dfc      	ldr	r4, [r7, #92]	; 0x5c
     6b2:	001a      	movs	r2, r3
     6b4:	0023      	movs	r3, r4
     6b6:	6bb8      	ldr	r0, [r7, #56]	; 0x38
     6b8:	6bf9      	ldr	r1, [r7, #60]	; 0x3c
     6ba:	4c16      	ldr	r4, [pc, #88]	; (714 <_sercom_get_async_baud_val+0x1bc>)
     6bc:	47a0      	blx	r4
     6be:	0003      	movs	r3, r0
     6c0:	000c      	movs	r4, r1
     6c2:	65bb      	str	r3, [r7, #88]	; 0x58
     6c4:	65fc      	str	r4, [r7, #92]	; 0x5c
     6c6:	6dbb      	ldr	r3, [r7, #88]	; 0x58
     6c8:	6dfc      	ldr	r4, [r7, #92]	; 0x5c
     6ca:	b2d9      	uxtb	r1, r3
     6cc:	6e7b      	ldr	r3, [r7, #100]	; 0x64
     6ce:	b2db      	uxtb	r3, r3
     6d0:	00db      	lsls	r3, r3, #3
     6d2:	b2da      	uxtb	r2, r3
     6d4:	2317      	movs	r3, #23
     6d6:	2040      	movs	r0, #64	; 0x40
     6d8:	4684      	mov	ip, r0
     6da:	44bc      	add	ip, r7
     6dc:	4463      	add	r3, ip
     6de:	1a8a      	subs	r2, r1, r2
     6e0:	701a      	strb	r2, [r3, #0]
     6e2:	2317      	movs	r3, #23
     6e4:	2240      	movs	r2, #64	; 0x40
     6e6:	4694      	mov	ip, r2
     6e8:	44bc      	add	ip, r7
     6ea:	4463      	add	r3, ip
     6ec:	781b      	ldrb	r3, [r3, #0]
     6ee:	035b      	lsls	r3, r3, #13
     6f0:	001a      	movs	r2, r3
     6f2:	6e7b      	ldr	r3, [r7, #100]	; 0x64
     6f4:	4313      	orrs	r3, r2
     6f6:	67bb      	str	r3, [r7, #120]	; 0x78
     6f8:	2300      	movs	r3, #0
     6fa:	67fb      	str	r3, [r7, #124]	; 0x7c
     6fc:	6fbb      	ldr	r3, [r7, #120]	; 0x78
     6fe:	6ffc      	ldr	r4, [r7, #124]	; 0x7c
     700:	b29a      	uxth	r2, r3
     702:	6c7b      	ldr	r3, [r7, #68]	; 0x44
     704:	801a      	strh	r2, [r3, #0]
     706:	2300      	movs	r3, #0
     708:	0018      	movs	r0, r3
     70a:	46bd      	mov	sp, r7
     70c:	b021      	add	sp, #132	; 0x84
     70e:	bdf0      	pop	{r4, r5, r6, r7, pc}
     710:	00004101 	.word	0x00004101
     714:	000003fb 	.word	0x000003fb

00000718 <sercom_set_gclk_generator>:
     718:	b580      	push	{r7, lr}
     71a:	b084      	sub	sp, #16
     71c:	af00      	add	r7, sp, #0
     71e:	0002      	movs	r2, r0
     720:	1dfb      	adds	r3, r7, #7
     722:	701a      	strb	r2, [r3, #0]
     724:	1dbb      	adds	r3, r7, #6
     726:	1c0a      	adds	r2, r1, #0
     728:	701a      	strb	r2, [r3, #0]
     72a:	4b1a      	ldr	r3, [pc, #104]	; (794 <sercom_set_gclk_generator+0x7c>)
     72c:	781b      	ldrb	r3, [r3, #0]
     72e:	2201      	movs	r2, #1
     730:	4053      	eors	r3, r2
     732:	b2db      	uxtb	r3, r3
     734:	2b00      	cmp	r3, #0
     736:	d103      	bne.n	740 <sercom_set_gclk_generator+0x28>
     738:	1dbb      	adds	r3, r7, #6
     73a:	781b      	ldrb	r3, [r3, #0]
     73c:	2b00      	cmp	r3, #0
     73e:	d01b      	beq.n	778 <sercom_set_gclk_generator+0x60>
     740:	230c      	movs	r3, #12
     742:	18fb      	adds	r3, r7, r3
     744:	0018      	movs	r0, r3
     746:	4b14      	ldr	r3, [pc, #80]	; (798 <sercom_set_gclk_generator+0x80>)
     748:	4798      	blx	r3
     74a:	230c      	movs	r3, #12
     74c:	18fb      	adds	r3, r7, r3
     74e:	1dfa      	adds	r2, r7, #7
     750:	7812      	ldrb	r2, [r2, #0]
     752:	701a      	strb	r2, [r3, #0]
     754:	230c      	movs	r3, #12
     756:	18fb      	adds	r3, r7, r3
     758:	0019      	movs	r1, r3
     75a:	2013      	movs	r0, #19
     75c:	4b0f      	ldr	r3, [pc, #60]	; (79c <sercom_set_gclk_generator+0x84>)
     75e:	4798      	blx	r3
     760:	2013      	movs	r0, #19
     762:	4b0f      	ldr	r3, [pc, #60]	; (7a0 <sercom_set_gclk_generator+0x88>)
     764:	4798      	blx	r3
     766:	4b0b      	ldr	r3, [pc, #44]	; (794 <sercom_set_gclk_generator+0x7c>)
     768:	1dfa      	adds	r2, r7, #7
     76a:	7812      	ldrb	r2, [r2, #0]
     76c:	705a      	strb	r2, [r3, #1]
     76e:	4b09      	ldr	r3, [pc, #36]	; (794 <sercom_set_gclk_generator+0x7c>)
     770:	2201      	movs	r2, #1
     772:	701a      	strb	r2, [r3, #0]
     774:	2300      	movs	r3, #0
     776:	e008      	b.n	78a <sercom_set_gclk_generator+0x72>
     778:	4b06      	ldr	r3, [pc, #24]	; (794 <sercom_set_gclk_generator+0x7c>)
     77a:	785b      	ldrb	r3, [r3, #1]
     77c:	1dfa      	adds	r2, r7, #7
     77e:	7812      	ldrb	r2, [r2, #0]
     780:	429a      	cmp	r2, r3
     782:	d101      	bne.n	788 <sercom_set_gclk_generator+0x70>
     784:	2300      	movs	r3, #0
     786:	e000      	b.n	78a <sercom_set_gclk_generator+0x72>
     788:	231d      	movs	r3, #29
     78a:	0018      	movs	r0, r3
     78c:	46bd      	mov	sp, r7
     78e:	b004      	add	sp, #16
     790:	bd80      	pop	{r7, pc}
     792:	46c0      	nop			; (mov r8, r8)
     794:	2000008c 	.word	0x2000008c
     798:	000003e5 	.word	0x000003e5
     79c:	00003839 	.word	0x00003839
     7a0:	0000387d 	.word	0x0000387d

000007a4 <_sercom_get_default_pad>:
     7a4:	b580      	push	{r7, lr}
     7a6:	b082      	sub	sp, #8
     7a8:	af00      	add	r7, sp, #0
     7aa:	6078      	str	r0, [r7, #4]
     7ac:	000a      	movs	r2, r1
     7ae:	1cfb      	adds	r3, r7, #3
     7b0:	701a      	strb	r2, [r3, #0]
     7b2:	687b      	ldr	r3, [r7, #4]
     7b4:	4a4d      	ldr	r2, [pc, #308]	; (8ec <_sercom_get_default_pad+0x148>)
     7b6:	4293      	cmp	r3, r2
     7b8:	d03f      	beq.n	83a <_sercom_get_default_pad+0x96>
     7ba:	4a4c      	ldr	r2, [pc, #304]	; (8ec <_sercom_get_default_pad+0x148>)
     7bc:	4293      	cmp	r3, r2
     7be:	d806      	bhi.n	7ce <_sercom_get_default_pad+0x2a>
     7c0:	4a4b      	ldr	r2, [pc, #300]	; (8f0 <_sercom_get_default_pad+0x14c>)
     7c2:	4293      	cmp	r3, r2
     7c4:	d00f      	beq.n	7e6 <_sercom_get_default_pad+0x42>
     7c6:	4a4b      	ldr	r2, [pc, #300]	; (8f4 <_sercom_get_default_pad+0x150>)
     7c8:	4293      	cmp	r3, r2
     7ca:	d021      	beq.n	810 <_sercom_get_default_pad+0x6c>
     7cc:	e089      	b.n	8e2 <_sercom_get_default_pad+0x13e>
     7ce:	4a4a      	ldr	r2, [pc, #296]	; (8f8 <_sercom_get_default_pad+0x154>)
     7d0:	4293      	cmp	r3, r2
     7d2:	d100      	bne.n	7d6 <_sercom_get_default_pad+0x32>
     7d4:	e05b      	b.n	88e <_sercom_get_default_pad+0xea>
     7d6:	4a49      	ldr	r2, [pc, #292]	; (8fc <_sercom_get_default_pad+0x158>)
     7d8:	4293      	cmp	r3, r2
     7da:	d100      	bne.n	7de <_sercom_get_default_pad+0x3a>
     7dc:	e06c      	b.n	8b8 <_sercom_get_default_pad+0x114>
     7de:	4a48      	ldr	r2, [pc, #288]	; (900 <_sercom_get_default_pad+0x15c>)
     7e0:	4293      	cmp	r3, r2
     7e2:	d03f      	beq.n	864 <_sercom_get_default_pad+0xc0>
     7e4:	e07d      	b.n	8e2 <_sercom_get_default_pad+0x13e>
     7e6:	1cfb      	adds	r3, r7, #3
     7e8:	781b      	ldrb	r3, [r3, #0]
     7ea:	2b01      	cmp	r3, #1
     7ec:	d00a      	beq.n	804 <_sercom_get_default_pad+0x60>
     7ee:	dc02      	bgt.n	7f6 <_sercom_get_default_pad+0x52>
     7f0:	2b00      	cmp	r3, #0
     7f2:	d005      	beq.n	800 <_sercom_get_default_pad+0x5c>
     7f4:	e075      	b.n	8e2 <_sercom_get_default_pad+0x13e>
     7f6:	2b02      	cmp	r3, #2
     7f8:	d006      	beq.n	808 <_sercom_get_default_pad+0x64>
     7fa:	2b03      	cmp	r3, #3
     7fc:	d006      	beq.n	80c <_sercom_get_default_pad+0x68>
     7fe:	e070      	b.n	8e2 <_sercom_get_default_pad+0x13e>
     800:	4b40      	ldr	r3, [pc, #256]	; (904 <_sercom_get_default_pad+0x160>)
     802:	e06f      	b.n	8e4 <_sercom_get_default_pad+0x140>
     804:	4b40      	ldr	r3, [pc, #256]	; (908 <_sercom_get_default_pad+0x164>)
     806:	e06d      	b.n	8e4 <_sercom_get_default_pad+0x140>
     808:	4b40      	ldr	r3, [pc, #256]	; (90c <_sercom_get_default_pad+0x168>)
     80a:	e06b      	b.n	8e4 <_sercom_get_default_pad+0x140>
     80c:	4b40      	ldr	r3, [pc, #256]	; (910 <_sercom_get_default_pad+0x16c>)
     80e:	e069      	b.n	8e4 <_sercom_get_default_pad+0x140>
     810:	1cfb      	adds	r3, r7, #3
     812:	781b      	ldrb	r3, [r3, #0]
     814:	2b01      	cmp	r3, #1
     816:	d00a      	beq.n	82e <_sercom_get_default_pad+0x8a>
     818:	dc02      	bgt.n	820 <_sercom_get_default_pad+0x7c>
     81a:	2b00      	cmp	r3, #0
     81c:	d005      	beq.n	82a <_sercom_get_default_pad+0x86>
     81e:	e060      	b.n	8e2 <_sercom_get_default_pad+0x13e>
     820:	2b02      	cmp	r3, #2
     822:	d006      	beq.n	832 <_sercom_get_default_pad+0x8e>
     824:	2b03      	cmp	r3, #3
     826:	d006      	beq.n	836 <_sercom_get_default_pad+0x92>
     828:	e05b      	b.n	8e2 <_sercom_get_default_pad+0x13e>
     82a:	2303      	movs	r3, #3
     82c:	e05a      	b.n	8e4 <_sercom_get_default_pad+0x140>
     82e:	4b39      	ldr	r3, [pc, #228]	; (914 <_sercom_get_default_pad+0x170>)
     830:	e058      	b.n	8e4 <_sercom_get_default_pad+0x140>
     832:	4b39      	ldr	r3, [pc, #228]	; (918 <_sercom_get_default_pad+0x174>)
     834:	e056      	b.n	8e4 <_sercom_get_default_pad+0x140>
     836:	4b39      	ldr	r3, [pc, #228]	; (91c <_sercom_get_default_pad+0x178>)
     838:	e054      	b.n	8e4 <_sercom_get_default_pad+0x140>
     83a:	1cfb      	adds	r3, r7, #3
     83c:	781b      	ldrb	r3, [r3, #0]
     83e:	2b01      	cmp	r3, #1
     840:	d00a      	beq.n	858 <_sercom_get_default_pad+0xb4>
     842:	dc02      	bgt.n	84a <_sercom_get_default_pad+0xa6>
     844:	2b00      	cmp	r3, #0
     846:	d005      	beq.n	854 <_sercom_get_default_pad+0xb0>
     848:	e04b      	b.n	8e2 <_sercom_get_default_pad+0x13e>
     84a:	2b02      	cmp	r3, #2
     84c:	d006      	beq.n	85c <_sercom_get_default_pad+0xb8>
     84e:	2b03      	cmp	r3, #3
     850:	d006      	beq.n	860 <_sercom_get_default_pad+0xbc>
     852:	e046      	b.n	8e2 <_sercom_get_default_pad+0x13e>
     854:	4b32      	ldr	r3, [pc, #200]	; (920 <_sercom_get_default_pad+0x17c>)
     856:	e045      	b.n	8e4 <_sercom_get_default_pad+0x140>
     858:	4b32      	ldr	r3, [pc, #200]	; (924 <_sercom_get_default_pad+0x180>)
     85a:	e043      	b.n	8e4 <_sercom_get_default_pad+0x140>
     85c:	4b32      	ldr	r3, [pc, #200]	; (928 <_sercom_get_default_pad+0x184>)
     85e:	e041      	b.n	8e4 <_sercom_get_default_pad+0x140>
     860:	4b32      	ldr	r3, [pc, #200]	; (92c <_sercom_get_default_pad+0x188>)
     862:	e03f      	b.n	8e4 <_sercom_get_default_pad+0x140>
     864:	1cfb      	adds	r3, r7, #3
     866:	781b      	ldrb	r3, [r3, #0]
     868:	2b01      	cmp	r3, #1
     86a:	d00a      	beq.n	882 <_sercom_get_default_pad+0xde>
     86c:	dc02      	bgt.n	874 <_sercom_get_default_pad+0xd0>
     86e:	2b00      	cmp	r3, #0
     870:	d005      	beq.n	87e <_sercom_get_default_pad+0xda>
     872:	e036      	b.n	8e2 <_sercom_get_default_pad+0x13e>
     874:	2b02      	cmp	r3, #2
     876:	d006      	beq.n	886 <_sercom_get_default_pad+0xe2>
     878:	2b03      	cmp	r3, #3
     87a:	d006      	beq.n	88a <_sercom_get_default_pad+0xe6>
     87c:	e031      	b.n	8e2 <_sercom_get_default_pad+0x13e>
     87e:	4b2c      	ldr	r3, [pc, #176]	; (930 <_sercom_get_default_pad+0x18c>)
     880:	e030      	b.n	8e4 <_sercom_get_default_pad+0x140>
     882:	4b2c      	ldr	r3, [pc, #176]	; (934 <_sercom_get_default_pad+0x190>)
     884:	e02e      	b.n	8e4 <_sercom_get_default_pad+0x140>
     886:	4b2c      	ldr	r3, [pc, #176]	; (938 <_sercom_get_default_pad+0x194>)
     888:	e02c      	b.n	8e4 <_sercom_get_default_pad+0x140>
     88a:	4b2c      	ldr	r3, [pc, #176]	; (93c <_sercom_get_default_pad+0x198>)
     88c:	e02a      	b.n	8e4 <_sercom_get_default_pad+0x140>
     88e:	1cfb      	adds	r3, r7, #3
     890:	781b      	ldrb	r3, [r3, #0]
     892:	2b01      	cmp	r3, #1
     894:	d00a      	beq.n	8ac <_sercom_get_default_pad+0x108>
     896:	dc02      	bgt.n	89e <_sercom_get_default_pad+0xfa>
     898:	2b00      	cmp	r3, #0
     89a:	d005      	beq.n	8a8 <_sercom_get_default_pad+0x104>
     89c:	e021      	b.n	8e2 <_sercom_get_default_pad+0x13e>
     89e:	2b02      	cmp	r3, #2
     8a0:	d006      	beq.n	8b0 <_sercom_get_default_pad+0x10c>
     8a2:	2b03      	cmp	r3, #3
     8a4:	d006      	beq.n	8b4 <_sercom_get_default_pad+0x110>
     8a6:	e01c      	b.n	8e2 <_sercom_get_default_pad+0x13e>
     8a8:	4b25      	ldr	r3, [pc, #148]	; (940 <_sercom_get_default_pad+0x19c>)
     8aa:	e01b      	b.n	8e4 <_sercom_get_default_pad+0x140>
     8ac:	4b25      	ldr	r3, [pc, #148]	; (944 <_sercom_get_default_pad+0x1a0>)
     8ae:	e019      	b.n	8e4 <_sercom_get_default_pad+0x140>
     8b0:	4b25      	ldr	r3, [pc, #148]	; (948 <_sercom_get_default_pad+0x1a4>)
     8b2:	e017      	b.n	8e4 <_sercom_get_default_pad+0x140>
     8b4:	4b25      	ldr	r3, [pc, #148]	; (94c <_sercom_get_default_pad+0x1a8>)
     8b6:	e015      	b.n	8e4 <_sercom_get_default_pad+0x140>
     8b8:	1cfb      	adds	r3, r7, #3
     8ba:	781b      	ldrb	r3, [r3, #0]
     8bc:	2b01      	cmp	r3, #1
     8be:	d00a      	beq.n	8d6 <_sercom_get_default_pad+0x132>
     8c0:	dc02      	bgt.n	8c8 <_sercom_get_default_pad+0x124>
     8c2:	2b00      	cmp	r3, #0
     8c4:	d005      	beq.n	8d2 <_sercom_get_default_pad+0x12e>
     8c6:	e00c      	b.n	8e2 <_sercom_get_default_pad+0x13e>
     8c8:	2b02      	cmp	r3, #2
     8ca:	d006      	beq.n	8da <_sercom_get_default_pad+0x136>
     8cc:	2b03      	cmp	r3, #3
     8ce:	d006      	beq.n	8de <_sercom_get_default_pad+0x13a>
     8d0:	e007      	b.n	8e2 <_sercom_get_default_pad+0x13e>
     8d2:	4b1f      	ldr	r3, [pc, #124]	; (950 <_sercom_get_default_pad+0x1ac>)
     8d4:	e006      	b.n	8e4 <_sercom_get_default_pad+0x140>
     8d6:	4b1f      	ldr	r3, [pc, #124]	; (954 <_sercom_get_default_pad+0x1b0>)
     8d8:	e004      	b.n	8e4 <_sercom_get_default_pad+0x140>
     8da:	4b1f      	ldr	r3, [pc, #124]	; (958 <_sercom_get_default_pad+0x1b4>)
     8dc:	e002      	b.n	8e4 <_sercom_get_default_pad+0x140>
     8de:	4b1f      	ldr	r3, [pc, #124]	; (95c <_sercom_get_default_pad+0x1b8>)
     8e0:	e000      	b.n	8e4 <_sercom_get_default_pad+0x140>
     8e2:	2300      	movs	r3, #0
     8e4:	0018      	movs	r0, r3
     8e6:	46bd      	mov	sp, r7
     8e8:	b002      	add	sp, #8
     8ea:	bd80      	pop	{r7, pc}
     8ec:	42001000 	.word	0x42001000
     8f0:	42000800 	.word	0x42000800
     8f4:	42000c00 	.word	0x42000c00
     8f8:	42001800 	.word	0x42001800
     8fc:	42001c00 	.word	0x42001c00
     900:	42001400 	.word	0x42001400
     904:	00040003 	.word	0x00040003
     908:	00050003 	.word	0x00050003
     90c:	00060003 	.word	0x00060003
     910:	00070003 	.word	0x00070003
     914:	00010003 	.word	0x00010003
     918:	001e0003 	.word	0x001e0003
     91c:	001f0003 	.word	0x001f0003
     920:	00080003 	.word	0x00080003
     924:	00090003 	.word	0x00090003
     928:	000a0003 	.word	0x000a0003
     92c:	000b0003 	.word	0x000b0003
     930:	00100003 	.word	0x00100003
     934:	00110003 	.word	0x00110003
     938:	00120003 	.word	0x00120003
     93c:	00130003 	.word	0x00130003
     940:	000c0003 	.word	0x000c0003
     944:	000d0003 	.word	0x000d0003
     948:	000e0003 	.word	0x000e0003
     94c:	000f0003 	.word	0x000f0003
     950:	00160003 	.word	0x00160003
     954:	00170003 	.word	0x00170003
     958:	00180003 	.word	0x00180003
     95c:	00190003 	.word	0x00190003

00000960 <_sercom_get_sercom_inst_index>:
     960:	b590      	push	{r4, r7, lr}
     962:	b08b      	sub	sp, #44	; 0x2c
     964:	af00      	add	r7, sp, #0
     966:	6078      	str	r0, [r7, #4]
     968:	230c      	movs	r3, #12
     96a:	18fb      	adds	r3, r7, r3
     96c:	4a0f      	ldr	r2, [pc, #60]	; (9ac <_sercom_get_sercom_inst_index+0x4c>)
     96e:	ca13      	ldmia	r2!, {r0, r1, r4}
     970:	c313      	stmia	r3!, {r0, r1, r4}
     972:	ca13      	ldmia	r2!, {r0, r1, r4}
     974:	c313      	stmia	r3!, {r0, r1, r4}
     976:	2300      	movs	r3, #0
     978:	627b      	str	r3, [r7, #36]	; 0x24
     97a:	e00e      	b.n	99a <_sercom_get_sercom_inst_index+0x3a>
     97c:	230c      	movs	r3, #12
     97e:	18fb      	adds	r3, r7, r3
     980:	6a7a      	ldr	r2, [r7, #36]	; 0x24
     982:	0092      	lsls	r2, r2, #2
     984:	58d3      	ldr	r3, [r2, r3]
     986:	001a      	movs	r2, r3
     988:	687b      	ldr	r3, [r7, #4]
     98a:	429a      	cmp	r2, r3
     98c:	d102      	bne.n	994 <_sercom_get_sercom_inst_index+0x34>
     98e:	6a7b      	ldr	r3, [r7, #36]	; 0x24
     990:	b2db      	uxtb	r3, r3
     992:	e006      	b.n	9a2 <_sercom_get_sercom_inst_index+0x42>
     994:	6a7b      	ldr	r3, [r7, #36]	; 0x24
     996:	3301      	adds	r3, #1
     998:	627b      	str	r3, [r7, #36]	; 0x24
     99a:	6a7b      	ldr	r3, [r7, #36]	; 0x24
     99c:	2b05      	cmp	r3, #5
     99e:	d9ed      	bls.n	97c <_sercom_get_sercom_inst_index+0x1c>
     9a0:	2300      	movs	r3, #0
     9a2:	0018      	movs	r0, r3
     9a4:	46bd      	mov	sp, r7
     9a6:	b00b      	add	sp, #44	; 0x2c
     9a8:	bd90      	pop	{r4, r7, pc}
     9aa:	46c0      	nop			; (mov r8, r8)
     9ac:	000042a4 	.word	0x000042a4

000009b0 <system_gclk_chan_get_config_defaults>:
     9b0:	b580      	push	{r7, lr}
     9b2:	b082      	sub	sp, #8
     9b4:	af00      	add	r7, sp, #0
     9b6:	6078      	str	r0, [r7, #4]
     9b8:	687b      	ldr	r3, [r7, #4]
     9ba:	2200      	movs	r2, #0
     9bc:	701a      	strb	r2, [r3, #0]
     9be:	46c0      	nop			; (mov r8, r8)
     9c0:	46bd      	mov	sp, r7
     9c2:	b002      	add	sp, #8
     9c4:	bd80      	pop	{r7, pc}
	...

000009c8 <system_apb_clock_set_mask>:
     9c8:	b580      	push	{r7, lr}
     9ca:	b082      	sub	sp, #8
     9cc:	af00      	add	r7, sp, #0
     9ce:	0002      	movs	r2, r0
     9d0:	6039      	str	r1, [r7, #0]
     9d2:	1dfb      	adds	r3, r7, #7
     9d4:	701a      	strb	r2, [r3, #0]
     9d6:	1dfb      	adds	r3, r7, #7
     9d8:	781b      	ldrb	r3, [r3, #0]
     9da:	2b01      	cmp	r3, #1
     9dc:	d00a      	beq.n	9f4 <system_apb_clock_set_mask+0x2c>
     9de:	2b02      	cmp	r3, #2
     9e0:	d00f      	beq.n	a02 <system_apb_clock_set_mask+0x3a>
     9e2:	2b00      	cmp	r3, #0
     9e4:	d114      	bne.n	a10 <system_apb_clock_set_mask+0x48>
     9e6:	4b0e      	ldr	r3, [pc, #56]	; (a20 <system_apb_clock_set_mask+0x58>)
     9e8:	4a0d      	ldr	r2, [pc, #52]	; (a20 <system_apb_clock_set_mask+0x58>)
     9ea:	6991      	ldr	r1, [r2, #24]
     9ec:	683a      	ldr	r2, [r7, #0]
     9ee:	430a      	orrs	r2, r1
     9f0:	619a      	str	r2, [r3, #24]
     9f2:	e00f      	b.n	a14 <system_apb_clock_set_mask+0x4c>
     9f4:	4b0a      	ldr	r3, [pc, #40]	; (a20 <system_apb_clock_set_mask+0x58>)
     9f6:	4a0a      	ldr	r2, [pc, #40]	; (a20 <system_apb_clock_set_mask+0x58>)
     9f8:	69d1      	ldr	r1, [r2, #28]
     9fa:	683a      	ldr	r2, [r7, #0]
     9fc:	430a      	orrs	r2, r1
     9fe:	61da      	str	r2, [r3, #28]
     a00:	e008      	b.n	a14 <system_apb_clock_set_mask+0x4c>
     a02:	4b07      	ldr	r3, [pc, #28]	; (a20 <system_apb_clock_set_mask+0x58>)
     a04:	4a06      	ldr	r2, [pc, #24]	; (a20 <system_apb_clock_set_mask+0x58>)
     a06:	6a11      	ldr	r1, [r2, #32]
     a08:	683a      	ldr	r2, [r7, #0]
     a0a:	430a      	orrs	r2, r1
     a0c:	621a      	str	r2, [r3, #32]
     a0e:	e001      	b.n	a14 <system_apb_clock_set_mask+0x4c>
     a10:	2317      	movs	r3, #23
     a12:	e000      	b.n	a16 <system_apb_clock_set_mask+0x4e>
     a14:	2300      	movs	r3, #0
     a16:	0018      	movs	r0, r3
     a18:	46bd      	mov	sp, r7
     a1a:	b002      	add	sp, #8
     a1c:	bd80      	pop	{r7, pc}
     a1e:	46c0      	nop			; (mov r8, r8)
     a20:	40000400 	.word	0x40000400

00000a24 <system_pinmux_get_config_defaults>:
     a24:	b580      	push	{r7, lr}
     a26:	b082      	sub	sp, #8
     a28:	af00      	add	r7, sp, #0
     a2a:	6078      	str	r0, [r7, #4]
     a2c:	687b      	ldr	r3, [r7, #4]
     a2e:	2280      	movs	r2, #128	; 0x80
     a30:	701a      	strb	r2, [r3, #0]
     a32:	687b      	ldr	r3, [r7, #4]
     a34:	2200      	movs	r2, #0
     a36:	705a      	strb	r2, [r3, #1]
     a38:	687b      	ldr	r3, [r7, #4]
     a3a:	2201      	movs	r2, #1
     a3c:	709a      	strb	r2, [r3, #2]
     a3e:	687b      	ldr	r3, [r7, #4]
     a40:	2200      	movs	r2, #0
     a42:	70da      	strb	r2, [r3, #3]
     a44:	46c0      	nop			; (mov r8, r8)
     a46:	46bd      	mov	sp, r7
     a48:	b002      	add	sp, #8
     a4a:	bd80      	pop	{r7, pc}

00000a4c <_tcc_get_inst_index>:
     a4c:	b580      	push	{r7, lr}
     a4e:	b084      	sub	sp, #16
     a50:	af00      	add	r7, sp, #0
     a52:	6078      	str	r0, [r7, #4]
     a54:	2300      	movs	r3, #0
     a56:	60fb      	str	r3, [r7, #12]
     a58:	e00c      	b.n	a74 <_tcc_get_inst_index+0x28>
     a5a:	4b0a      	ldr	r3, [pc, #40]	; (a84 <_tcc_get_inst_index+0x38>)
     a5c:	68fa      	ldr	r2, [r7, #12]
     a5e:	0092      	lsls	r2, r2, #2
     a60:	58d2      	ldr	r2, [r2, r3]
     a62:	687b      	ldr	r3, [r7, #4]
     a64:	429a      	cmp	r2, r3
     a66:	d102      	bne.n	a6e <_tcc_get_inst_index+0x22>
     a68:	68fb      	ldr	r3, [r7, #12]
     a6a:	b2db      	uxtb	r3, r3
     a6c:	e006      	b.n	a7c <_tcc_get_inst_index+0x30>
     a6e:	68fb      	ldr	r3, [r7, #12]
     a70:	3301      	adds	r3, #1
     a72:	60fb      	str	r3, [r7, #12]
     a74:	68fb      	ldr	r3, [r7, #12]
     a76:	2b02      	cmp	r3, #2
     a78:	d9ef      	bls.n	a5a <_tcc_get_inst_index+0xe>
     a7a:	2300      	movs	r3, #0
     a7c:	0018      	movs	r0, r3
     a7e:	46bd      	mov	sp, r7
     a80:	b004      	add	sp, #16
     a82:	bd80      	pop	{r7, pc}
     a84:	000042bc 	.word	0x000042bc

00000a88 <tcc_get_config_defaults>:
     a88:	b590      	push	{r4, r7, lr}
     a8a:	b085      	sub	sp, #20
     a8c:	af00      	add	r7, sp, #0
     a8e:	6078      	str	r0, [r7, #4]
     a90:	6039      	str	r1, [r7, #0]
     a92:	230f      	movs	r3, #15
     a94:	18fc      	adds	r4, r7, r3
     a96:	683b      	ldr	r3, [r7, #0]
     a98:	0018      	movs	r0, r3
     a9a:	4bad      	ldr	r3, [pc, #692]	; (d50 <tcc_get_config_defaults+0x2c8>)
     a9c:	4798      	blx	r3
     a9e:	0003      	movs	r3, r0
     aa0:	7023      	strb	r3, [r4, #0]
     aa2:	687b      	ldr	r3, [r7, #4]
     aa4:	2200      	movs	r2, #0
     aa6:	601a      	str	r2, [r3, #0]
     aa8:	230f      	movs	r3, #15
     aaa:	18fb      	adds	r3, r7, r3
     aac:	781a      	ldrb	r2, [r3, #0]
     aae:	4ba9      	ldr	r3, [pc, #676]	; (d54 <tcc_get_config_defaults+0x2cc>)
     ab0:	0092      	lsls	r2, r2, #2
     ab2:	58d2      	ldr	r2, [r2, r3]
     ab4:	687b      	ldr	r3, [r7, #4]
     ab6:	605a      	str	r2, [r3, #4]
     ab8:	687b      	ldr	r3, [r7, #4]
     aba:	2200      	movs	r2, #0
     abc:	729a      	strb	r2, [r3, #10]
     abe:	687b      	ldr	r3, [r7, #4]
     ac0:	2200      	movs	r2, #0
     ac2:	72da      	strb	r2, [r3, #11]
     ac4:	687b      	ldr	r3, [r7, #4]
     ac6:	2200      	movs	r2, #0
     ac8:	731a      	strb	r2, [r3, #12]
     aca:	687b      	ldr	r3, [r7, #4]
     acc:	2200      	movs	r2, #0
     ace:	725a      	strb	r2, [r3, #9]
     ad0:	687b      	ldr	r3, [r7, #4]
     ad2:	2200      	movs	r2, #0
     ad4:	721a      	strb	r2, [r3, #8]
     ad6:	687b      	ldr	r3, [r7, #4]
     ad8:	2200      	movs	r2, #0
     ada:	61da      	str	r2, [r3, #28]
     adc:	687b      	ldr	r3, [r7, #4]
     ade:	2200      	movs	r2, #0
     ae0:	621a      	str	r2, [r3, #32]
     ae2:	687b      	ldr	r3, [r7, #4]
     ae4:	2200      	movs	r2, #0
     ae6:	625a      	str	r2, [r3, #36]	; 0x24
     ae8:	687b      	ldr	r3, [r7, #4]
     aea:	2200      	movs	r2, #0
     aec:	629a      	str	r2, [r3, #40]	; 0x28
     aee:	687b      	ldr	r3, [r7, #4]
     af0:	2200      	movs	r2, #0
     af2:	751a      	strb	r2, [r3, #20]
     af4:	687b      	ldr	r3, [r7, #4]
     af6:	2200      	movs	r2, #0
     af8:	755a      	strb	r2, [r3, #21]
     afa:	687b      	ldr	r3, [r7, #4]
     afc:	2200      	movs	r2, #0
     afe:	759a      	strb	r2, [r3, #22]
     b00:	687b      	ldr	r3, [r7, #4]
     b02:	2200      	movs	r2, #0
     b04:	75da      	strb	r2, [r3, #23]
     b06:	687b      	ldr	r3, [r7, #4]
     b08:	2200      	movs	r2, #0
     b0a:	761a      	strb	r2, [r3, #24]
     b0c:	687b      	ldr	r3, [r7, #4]
     b0e:	2200      	movs	r2, #0
     b10:	765a      	strb	r2, [r3, #25]
     b12:	687b      	ldr	r3, [r7, #4]
     b14:	2200      	movs	r2, #0
     b16:	741a      	strb	r2, [r3, #16]
     b18:	687b      	ldr	r3, [r7, #4]
     b1a:	2200      	movs	r2, #0
     b1c:	745a      	strb	r2, [r3, #17]
     b1e:	687b      	ldr	r3, [r7, #4]
     b20:	2200      	movs	r2, #0
     b22:	749a      	strb	r2, [r3, #18]
     b24:	687b      	ldr	r3, [r7, #4]
     b26:	2200      	movs	r2, #0
     b28:	74da      	strb	r2, [r3, #19]
     b2a:	687b      	ldr	r3, [r7, #4]
     b2c:	222c      	movs	r2, #44	; 0x2c
     b2e:	2100      	movs	r1, #0
     b30:	5499      	strb	r1, [r3, r2]
     b32:	687b      	ldr	r3, [r7, #4]
     b34:	222d      	movs	r2, #45	; 0x2d
     b36:	2100      	movs	r1, #0
     b38:	5499      	strb	r1, [r3, r2]
     b3a:	687b      	ldr	r3, [r7, #4]
     b3c:	222e      	movs	r2, #46	; 0x2e
     b3e:	2100      	movs	r1, #0
     b40:	5499      	strb	r1, [r3, r2]
     b42:	687b      	ldr	r3, [r7, #4]
     b44:	222f      	movs	r2, #47	; 0x2f
     b46:	2100      	movs	r1, #0
     b48:	5499      	strb	r1, [r3, r2]
     b4a:	687b      	ldr	r3, [r7, #4]
     b4c:	2230      	movs	r2, #48	; 0x30
     b4e:	2100      	movs	r1, #0
     b50:	5499      	strb	r1, [r3, r2]
     b52:	687b      	ldr	r3, [r7, #4]
     b54:	2231      	movs	r2, #49	; 0x31
     b56:	2100      	movs	r1, #0
     b58:	5499      	strb	r1, [r3, r2]
     b5a:	687b      	ldr	r3, [r7, #4]
     b5c:	2232      	movs	r2, #50	; 0x32
     b5e:	2100      	movs	r1, #0
     b60:	5499      	strb	r1, [r3, r2]
     b62:	687b      	ldr	r3, [r7, #4]
     b64:	2233      	movs	r2, #51	; 0x33
     b66:	2100      	movs	r1, #0
     b68:	5499      	strb	r1, [r3, r2]
     b6a:	687b      	ldr	r3, [r7, #4]
     b6c:	2234      	movs	r2, #52	; 0x34
     b6e:	2100      	movs	r1, #0
     b70:	5499      	strb	r1, [r3, r2]
     b72:	687b      	ldr	r3, [r7, #4]
     b74:	2235      	movs	r2, #53	; 0x35
     b76:	2100      	movs	r1, #0
     b78:	5499      	strb	r1, [r3, r2]
     b7a:	687b      	ldr	r3, [r7, #4]
     b7c:	2236      	movs	r2, #54	; 0x36
     b7e:	2100      	movs	r1, #0
     b80:	5499      	strb	r1, [r3, r2]
     b82:	687b      	ldr	r3, [r7, #4]
     b84:	2237      	movs	r2, #55	; 0x37
     b86:	2100      	movs	r1, #0
     b88:	5499      	strb	r1, [r3, r2]
     b8a:	687b      	ldr	r3, [r7, #4]
     b8c:	2238      	movs	r2, #56	; 0x38
     b8e:	2100      	movs	r1, #0
     b90:	5499      	strb	r1, [r3, r2]
     b92:	687b      	ldr	r3, [r7, #4]
     b94:	2239      	movs	r2, #57	; 0x39
     b96:	2100      	movs	r1, #0
     b98:	5499      	strb	r1, [r3, r2]
     b9a:	687b      	ldr	r3, [r7, #4]
     b9c:	223a      	movs	r2, #58	; 0x3a
     b9e:	2100      	movs	r1, #0
     ba0:	5499      	strb	r1, [r3, r2]
     ba2:	687b      	ldr	r3, [r7, #4]
     ba4:	223b      	movs	r2, #59	; 0x3b
     ba6:	2100      	movs	r1, #0
     ba8:	5499      	strb	r1, [r3, r2]
     baa:	687b      	ldr	r3, [r7, #4]
     bac:	223c      	movs	r2, #60	; 0x3c
     bae:	2100      	movs	r1, #0
     bb0:	5499      	strb	r1, [r3, r2]
     bb2:	687b      	ldr	r3, [r7, #4]
     bb4:	223d      	movs	r2, #61	; 0x3d
     bb6:	2100      	movs	r1, #0
     bb8:	5499      	strb	r1, [r3, r2]
     bba:	687b      	ldr	r3, [r7, #4]
     bbc:	223e      	movs	r2, #62	; 0x3e
     bbe:	2100      	movs	r1, #0
     bc0:	5499      	strb	r1, [r3, r2]
     bc2:	687b      	ldr	r3, [r7, #4]
     bc4:	223f      	movs	r2, #63	; 0x3f
     bc6:	2100      	movs	r1, #0
     bc8:	5499      	strb	r1, [r3, r2]
     bca:	687b      	ldr	r3, [r7, #4]
     bcc:	2240      	movs	r2, #64	; 0x40
     bce:	2100      	movs	r1, #0
     bd0:	5499      	strb	r1, [r3, r2]
     bd2:	687b      	ldr	r3, [r7, #4]
     bd4:	2241      	movs	r2, #65	; 0x41
     bd6:	2100      	movs	r1, #0
     bd8:	5499      	strb	r1, [r3, r2]
     bda:	687b      	ldr	r3, [r7, #4]
     bdc:	2242      	movs	r2, #66	; 0x42
     bde:	2100      	movs	r1, #0
     be0:	5499      	strb	r1, [r3, r2]
     be2:	687b      	ldr	r3, [r7, #4]
     be4:	2243      	movs	r2, #67	; 0x43
     be6:	2100      	movs	r1, #0
     be8:	5499      	strb	r1, [r3, r2]
     bea:	687b      	ldr	r3, [r7, #4]
     bec:	2244      	movs	r2, #68	; 0x44
     bee:	2100      	movs	r1, #0
     bf0:	5499      	strb	r1, [r3, r2]
     bf2:	687b      	ldr	r3, [r7, #4]
     bf4:	2245      	movs	r2, #69	; 0x45
     bf6:	2100      	movs	r1, #0
     bf8:	5499      	strb	r1, [r3, r2]
     bfa:	687b      	ldr	r3, [r7, #4]
     bfc:	2246      	movs	r2, #70	; 0x46
     bfe:	2100      	movs	r1, #0
     c00:	5499      	strb	r1, [r3, r2]
     c02:	687b      	ldr	r3, [r7, #4]
     c04:	2247      	movs	r2, #71	; 0x47
     c06:	2100      	movs	r1, #0
     c08:	5499      	strb	r1, [r3, r2]
     c0a:	687b      	ldr	r3, [r7, #4]
     c0c:	2248      	movs	r2, #72	; 0x48
     c0e:	2100      	movs	r1, #0
     c10:	5499      	strb	r1, [r3, r2]
     c12:	687b      	ldr	r3, [r7, #4]
     c14:	2249      	movs	r2, #73	; 0x49
     c16:	2100      	movs	r1, #0
     c18:	5499      	strb	r1, [r3, r2]
     c1a:	687b      	ldr	r3, [r7, #4]
     c1c:	224a      	movs	r2, #74	; 0x4a
     c1e:	2100      	movs	r1, #0
     c20:	5499      	strb	r1, [r3, r2]
     c22:	687b      	ldr	r3, [r7, #4]
     c24:	224b      	movs	r2, #75	; 0x4b
     c26:	2100      	movs	r1, #0
     c28:	5499      	strb	r1, [r3, r2]
     c2a:	687b      	ldr	r3, [r7, #4]
     c2c:	224c      	movs	r2, #76	; 0x4c
     c2e:	2100      	movs	r1, #0
     c30:	5499      	strb	r1, [r3, r2]
     c32:	687b      	ldr	r3, [r7, #4]
     c34:	224d      	movs	r2, #77	; 0x4d
     c36:	2100      	movs	r1, #0
     c38:	5499      	strb	r1, [r3, r2]
     c3a:	687b      	ldr	r3, [r7, #4]
     c3c:	224e      	movs	r2, #78	; 0x4e
     c3e:	2100      	movs	r1, #0
     c40:	5499      	strb	r1, [r3, r2]
     c42:	687b      	ldr	r3, [r7, #4]
     c44:	224f      	movs	r2, #79	; 0x4f
     c46:	2100      	movs	r1, #0
     c48:	5499      	strb	r1, [r3, r2]
     c4a:	687b      	ldr	r3, [r7, #4]
     c4c:	2250      	movs	r2, #80	; 0x50
     c4e:	2100      	movs	r1, #0
     c50:	5499      	strb	r1, [r3, r2]
     c52:	687b      	ldr	r3, [r7, #4]
     c54:	2251      	movs	r2, #81	; 0x51
     c56:	2100      	movs	r1, #0
     c58:	5499      	strb	r1, [r3, r2]
     c5a:	687b      	ldr	r3, [r7, #4]
     c5c:	2252      	movs	r2, #82	; 0x52
     c5e:	2100      	movs	r1, #0
     c60:	5499      	strb	r1, [r3, r2]
     c62:	687b      	ldr	r3, [r7, #4]
     c64:	2253      	movs	r2, #83	; 0x53
     c66:	2100      	movs	r1, #0
     c68:	5499      	strb	r1, [r3, r2]
     c6a:	687b      	ldr	r3, [r7, #4]
     c6c:	2254      	movs	r2, #84	; 0x54
     c6e:	2100      	movs	r1, #0
     c70:	5499      	strb	r1, [r3, r2]
     c72:	687b      	ldr	r3, [r7, #4]
     c74:	2255      	movs	r2, #85	; 0x55
     c76:	2100      	movs	r1, #0
     c78:	5499      	strb	r1, [r3, r2]
     c7a:	687b      	ldr	r3, [r7, #4]
     c7c:	2256      	movs	r2, #86	; 0x56
     c7e:	2100      	movs	r1, #0
     c80:	5499      	strb	r1, [r3, r2]
     c82:	687b      	ldr	r3, [r7, #4]
     c84:	2257      	movs	r2, #87	; 0x57
     c86:	2100      	movs	r1, #0
     c88:	5499      	strb	r1, [r3, r2]
     c8a:	687b      	ldr	r3, [r7, #4]
     c8c:	2298      	movs	r2, #152	; 0x98
     c8e:	2100      	movs	r1, #0
     c90:	5499      	strb	r1, [r3, r2]
     c92:	687b      	ldr	r3, [r7, #4]
     c94:	2200      	movs	r2, #0
     c96:	659a      	str	r2, [r3, #88]	; 0x58
     c98:	687b      	ldr	r3, [r7, #4]
     c9a:	2200      	movs	r2, #0
     c9c:	679a      	str	r2, [r3, #120]	; 0x78
     c9e:	687b      	ldr	r3, [r7, #4]
     ca0:	2299      	movs	r2, #153	; 0x99
     ca2:	2100      	movs	r1, #0
     ca4:	5499      	strb	r1, [r3, r2]
     ca6:	687b      	ldr	r3, [r7, #4]
     ca8:	2200      	movs	r2, #0
     caa:	65da      	str	r2, [r3, #92]	; 0x5c
     cac:	687b      	ldr	r3, [r7, #4]
     cae:	2200      	movs	r2, #0
     cb0:	67da      	str	r2, [r3, #124]	; 0x7c
     cb2:	687b      	ldr	r3, [r7, #4]
     cb4:	229a      	movs	r2, #154	; 0x9a
     cb6:	2100      	movs	r1, #0
     cb8:	5499      	strb	r1, [r3, r2]
     cba:	687b      	ldr	r3, [r7, #4]
     cbc:	2200      	movs	r2, #0
     cbe:	661a      	str	r2, [r3, #96]	; 0x60
     cc0:	687b      	ldr	r3, [r7, #4]
     cc2:	2280      	movs	r2, #128	; 0x80
     cc4:	2100      	movs	r1, #0
     cc6:	5099      	str	r1, [r3, r2]
     cc8:	687b      	ldr	r3, [r7, #4]
     cca:	229b      	movs	r2, #155	; 0x9b
     ccc:	2100      	movs	r1, #0
     cce:	5499      	strb	r1, [r3, r2]
     cd0:	687b      	ldr	r3, [r7, #4]
     cd2:	2200      	movs	r2, #0
     cd4:	665a      	str	r2, [r3, #100]	; 0x64
     cd6:	687b      	ldr	r3, [r7, #4]
     cd8:	2284      	movs	r2, #132	; 0x84
     cda:	2100      	movs	r1, #0
     cdc:	5099      	str	r1, [r3, r2]
     cde:	687b      	ldr	r3, [r7, #4]
     ce0:	229c      	movs	r2, #156	; 0x9c
     ce2:	2100      	movs	r1, #0
     ce4:	5499      	strb	r1, [r3, r2]
     ce6:	687b      	ldr	r3, [r7, #4]
     ce8:	2200      	movs	r2, #0
     cea:	669a      	str	r2, [r3, #104]	; 0x68
     cec:	687b      	ldr	r3, [r7, #4]
     cee:	2288      	movs	r2, #136	; 0x88
     cf0:	2100      	movs	r1, #0
     cf2:	5099      	str	r1, [r3, r2]
     cf4:	687b      	ldr	r3, [r7, #4]
     cf6:	229d      	movs	r2, #157	; 0x9d
     cf8:	2100      	movs	r1, #0
     cfa:	5499      	strb	r1, [r3, r2]
     cfc:	687b      	ldr	r3, [r7, #4]
     cfe:	2200      	movs	r2, #0
     d00:	66da      	str	r2, [r3, #108]	; 0x6c
     d02:	687b      	ldr	r3, [r7, #4]
     d04:	228c      	movs	r2, #140	; 0x8c
     d06:	2100      	movs	r1, #0
     d08:	5099      	str	r1, [r3, r2]
     d0a:	687b      	ldr	r3, [r7, #4]
     d0c:	229e      	movs	r2, #158	; 0x9e
     d0e:	2100      	movs	r1, #0
     d10:	5499      	strb	r1, [r3, r2]
     d12:	687b      	ldr	r3, [r7, #4]
     d14:	2200      	movs	r2, #0
     d16:	671a      	str	r2, [r3, #112]	; 0x70
     d18:	687b      	ldr	r3, [r7, #4]
     d1a:	2290      	movs	r2, #144	; 0x90
     d1c:	2100      	movs	r1, #0
     d1e:	5099      	str	r1, [r3, r2]
     d20:	687b      	ldr	r3, [r7, #4]
     d22:	229f      	movs	r2, #159	; 0x9f
     d24:	2100      	movs	r1, #0
     d26:	5499      	strb	r1, [r3, r2]
     d28:	687b      	ldr	r3, [r7, #4]
     d2a:	2200      	movs	r2, #0
     d2c:	675a      	str	r2, [r3, #116]	; 0x74
     d2e:	687b      	ldr	r3, [r7, #4]
     d30:	2294      	movs	r2, #148	; 0x94
     d32:	2100      	movs	r1, #0
     d34:	5099      	str	r1, [r3, r2]
     d36:	687b      	ldr	r3, [r7, #4]
     d38:	22a0      	movs	r2, #160	; 0xa0
     d3a:	2101      	movs	r1, #1
     d3c:	5499      	strb	r1, [r3, r2]
     d3e:	687b      	ldr	r3, [r7, #4]
     d40:	22a1      	movs	r2, #161	; 0xa1
     d42:	2100      	movs	r1, #0
     d44:	5499      	strb	r1, [r3, r2]
     d46:	46c0      	nop			; (mov r8, r8)
     d48:	46bd      	mov	sp, r7
     d4a:	b005      	add	sp, #20
     d4c:	bd90      	pop	{r4, r7, pc}
     d4e:	46c0      	nop			; (mov r8, r8)
     d50:	00000a4d 	.word	0x00000a4d
     d54:	000042d8 	.word	0x000042d8

00000d58 <_tcc_build_ctrla>:
     d58:	b580      	push	{r7, lr}
     d5a:	b086      	sub	sp, #24
     d5c:	af00      	add	r7, sp, #0
     d5e:	60b9      	str	r1, [r7, #8]
     d60:	607a      	str	r2, [r7, #4]
     d62:	230f      	movs	r3, #15
     d64:	18fb      	adds	r3, r7, r3
     d66:	1c02      	adds	r2, r0, #0
     d68:	701a      	strb	r2, [r3, #0]
     d6a:	2300      	movs	r3, #0
     d6c:	617b      	str	r3, [r7, #20]
     d6e:	2300      	movs	r3, #0
     d70:	613b      	str	r3, [r7, #16]
     d72:	e01d      	b.n	db0 <_tcc_build_ctrla+0x58>
     d74:	68ba      	ldr	r2, [r7, #8]
     d76:	693b      	ldr	r3, [r7, #16]
     d78:	18d3      	adds	r3, r2, r3
     d7a:	3310      	adds	r3, #16
     d7c:	781b      	ldrb	r3, [r3, #0]
     d7e:	2b01      	cmp	r3, #1
     d80:	d113      	bne.n	daa <_tcc_build_ctrla+0x52>
     d82:	230f      	movs	r3, #15
     d84:	18fb      	adds	r3, r7, r3
     d86:	781b      	ldrb	r3, [r3, #0]
     d88:	4a1b      	ldr	r2, [pc, #108]	; (df8 <_tcc_build_ctrla+0xa0>)
     d8a:	5cd3      	ldrb	r3, [r2, r3]
     d8c:	001a      	movs	r2, r3
     d8e:	693b      	ldr	r3, [r7, #16]
     d90:	429a      	cmp	r2, r3
     d92:	da01      	bge.n	d98 <_tcc_build_ctrla+0x40>
     d94:	2317      	movs	r3, #23
     d96:	e02a      	b.n	dee <_tcc_build_ctrla+0x96>
     d98:	2380      	movs	r3, #128	; 0x80
     d9a:	045a      	lsls	r2, r3, #17
     d9c:	693b      	ldr	r3, [r7, #16]
     d9e:	409a      	lsls	r2, r3
     da0:	0013      	movs	r3, r2
     da2:	001a      	movs	r2, r3
     da4:	697b      	ldr	r3, [r7, #20]
     da6:	4313      	orrs	r3, r2
     da8:	617b      	str	r3, [r7, #20]
     daa:	693b      	ldr	r3, [r7, #16]
     dac:	3301      	adds	r3, #1
     dae:	613b      	str	r3, [r7, #16]
     db0:	693b      	ldr	r3, [r7, #16]
     db2:	2b03      	cmp	r3, #3
     db4:	ddde      	ble.n	d74 <_tcc_build_ctrla+0x1c>
     db6:	68bb      	ldr	r3, [r7, #8]
     db8:	22a1      	movs	r2, #161	; 0xa1
     dba:	5c9b      	ldrb	r3, [r3, r2]
     dbc:	2b00      	cmp	r3, #0
     dbe:	d004      	beq.n	dca <_tcc_build_ctrla+0x72>
     dc0:	697b      	ldr	r3, [r7, #20]
     dc2:	2280      	movs	r2, #128	; 0x80
     dc4:	0112      	lsls	r2, r2, #4
     dc6:	4313      	orrs	r3, r2
     dc8:	617b      	str	r3, [r7, #20]
     dca:	68bb      	ldr	r3, [r7, #8]
     dcc:	7b1b      	ldrb	r3, [r3, #12]
     dce:	031b      	lsls	r3, r3, #12
     dd0:	001a      	movs	r2, r3
     dd2:	697b      	ldr	r3, [r7, #20]
     dd4:	4313      	orrs	r3, r2
     dd6:	617b      	str	r3, [r7, #20]
     dd8:	68bb      	ldr	r3, [r7, #8]
     dda:	7adb      	ldrb	r3, [r3, #11]
     ddc:	021b      	lsls	r3, r3, #8
     dde:	001a      	movs	r2, r3
     de0:	697b      	ldr	r3, [r7, #20]
     de2:	4313      	orrs	r3, r2
     de4:	617b      	str	r3, [r7, #20]
     de6:	687b      	ldr	r3, [r7, #4]
     de8:	697a      	ldr	r2, [r7, #20]
     dea:	601a      	str	r2, [r3, #0]
     dec:	2300      	movs	r3, #0
     dee:	0018      	movs	r0, r3
     df0:	46bd      	mov	sp, r7
     df2:	b006      	add	sp, #24
     df4:	bd80      	pop	{r7, pc}
     df6:	46c0      	nop			; (mov r8, r8)
     df8:	000042e4 	.word	0x000042e4

00000dfc <_tcc_build_ctrlb>:
     dfc:	b580      	push	{r7, lr}
     dfe:	b086      	sub	sp, #24
     e00:	af00      	add	r7, sp, #0
     e02:	60b9      	str	r1, [r7, #8]
     e04:	607a      	str	r2, [r7, #4]
     e06:	230f      	movs	r3, #15
     e08:	18fb      	adds	r3, r7, r3
     e0a:	1c02      	adds	r2, r0, #0
     e0c:	701a      	strb	r2, [r3, #0]
     e0e:	2317      	movs	r3, #23
     e10:	18fb      	adds	r3, r7, r3
     e12:	2200      	movs	r2, #0
     e14:	701a      	strb	r2, [r3, #0]
     e16:	68bb      	ldr	r3, [r7, #8]
     e18:	7a1b      	ldrb	r3, [r3, #8]
     e1a:	2b00      	cmp	r3, #0
     e1c:	d007      	beq.n	e2e <_tcc_build_ctrlb+0x32>
     e1e:	2317      	movs	r3, #23
     e20:	18fb      	adds	r3, r7, r3
     e22:	2217      	movs	r2, #23
     e24:	18ba      	adds	r2, r7, r2
     e26:	7812      	ldrb	r2, [r2, #0]
     e28:	2104      	movs	r1, #4
     e2a:	430a      	orrs	r2, r1
     e2c:	701a      	strb	r2, [r3, #0]
     e2e:	68bb      	ldr	r3, [r7, #8]
     e30:	7a5b      	ldrb	r3, [r3, #9]
     e32:	2b01      	cmp	r3, #1
     e34:	d107      	bne.n	e46 <_tcc_build_ctrlb+0x4a>
     e36:	2317      	movs	r3, #23
     e38:	18fb      	adds	r3, r7, r3
     e3a:	2217      	movs	r2, #23
     e3c:	18ba      	adds	r2, r7, r2
     e3e:	7812      	ldrb	r2, [r2, #0]
     e40:	2101      	movs	r1, #1
     e42:	430a      	orrs	r2, r1
     e44:	701a      	strb	r2, [r3, #0]
     e46:	687b      	ldr	r3, [r7, #4]
     e48:	2217      	movs	r2, #23
     e4a:	18ba      	adds	r2, r7, r2
     e4c:	7812      	ldrb	r2, [r2, #0]
     e4e:	701a      	strb	r2, [r3, #0]
     e50:	46c0      	nop			; (mov r8, r8)
     e52:	46bd      	mov	sp, r7
     e54:	b006      	add	sp, #24
     e56:	bd80      	pop	{r7, pc}

00000e58 <_tcc_build_faults>:
     e58:	b580      	push	{r7, lr}
     e5a:	b088      	sub	sp, #32
     e5c:	af00      	add	r7, sp, #0
     e5e:	60b9      	str	r1, [r7, #8]
     e60:	607a      	str	r2, [r7, #4]
     e62:	230f      	movs	r3, #15
     e64:	18fb      	adds	r3, r7, r3
     e66:	1c02      	adds	r2, r0, #0
     e68:	701a      	strb	r2, [r3, #0]
     e6a:	230f      	movs	r3, #15
     e6c:	18fb      	adds	r3, r7, r3
     e6e:	781a      	ldrb	r2, [r3, #0]
     e70:	231b      	movs	r3, #27
     e72:	18fb      	adds	r3, r7, r3
     e74:	493e      	ldr	r1, [pc, #248]	; (f70 <_tcc_build_faults+0x118>)
     e76:	5c8a      	ldrb	r2, [r1, r2]
     e78:	701a      	strb	r2, [r3, #0]
     e7a:	2300      	movs	r3, #0
     e7c:	61fb      	str	r3, [r7, #28]
     e7e:	e06e      	b.n	f5e <_tcc_build_faults+0x106>
     e80:	69fa      	ldr	r2, [r7, #28]
     e82:	0013      	movs	r3, r2
     e84:	009b      	lsls	r3, r3, #2
     e86:	189b      	adds	r3, r3, r2
     e88:	005b      	lsls	r3, r3, #1
     e8a:	3328      	adds	r3, #40	; 0x28
     e8c:	68ba      	ldr	r2, [r7, #8]
     e8e:	18d3      	adds	r3, r2, r3
     e90:	3304      	adds	r3, #4
     e92:	617b      	str	r3, [r7, #20]
     e94:	697b      	ldr	r3, [r7, #20]
     e96:	7a5b      	ldrb	r3, [r3, #9]
     e98:	221b      	movs	r2, #27
     e9a:	18ba      	adds	r2, r7, r2
     e9c:	7812      	ldrb	r2, [r2, #0]
     e9e:	429a      	cmp	r2, r3
     ea0:	d801      	bhi.n	ea6 <_tcc_build_faults+0x4e>
     ea2:	2317      	movs	r3, #23
     ea4:	e05f      	b.n	f66 <_tcc_build_faults+0x10e>
     ea6:	697b      	ldr	r3, [r7, #20]
     ea8:	781b      	ldrb	r3, [r3, #0]
     eaa:	2b0f      	cmp	r3, #15
     eac:	d901      	bls.n	eb2 <_tcc_build_faults+0x5a>
     eae:	2317      	movs	r3, #23
     eb0:	e059      	b.n	f66 <_tcc_build_faults+0x10e>
     eb2:	697b      	ldr	r3, [r7, #20]
     eb4:	781b      	ldrb	r3, [r3, #0]
     eb6:	061b      	lsls	r3, r3, #24
     eb8:	001a      	movs	r2, r3
     eba:	23f0      	movs	r3, #240	; 0xf0
     ebc:	051b      	lsls	r3, r3, #20
     ebe:	401a      	ands	r2, r3
     ec0:	697b      	ldr	r3, [r7, #20]
     ec2:	785b      	ldrb	r3, [r3, #1]
     ec4:	041b      	lsls	r3, r3, #16
     ec6:	0019      	movs	r1, r3
     ec8:	23ff      	movs	r3, #255	; 0xff
     eca:	041b      	lsls	r3, r3, #16
     ecc:	400b      	ands	r3, r1
     ece:	431a      	orrs	r2, r3
     ed0:	697b      	ldr	r3, [r7, #20]
     ed2:	789b      	ldrb	r3, [r3, #2]
     ed4:	2b00      	cmp	r3, #0
     ed6:	d001      	beq.n	edc <_tcc_build_faults+0x84>
     ed8:	2380      	movs	r3, #128	; 0x80
     eda:	e000      	b.n	ede <_tcc_build_faults+0x86>
     edc:	2300      	movs	r3, #0
     ede:	431a      	orrs	r2, r3
     ee0:	697b      	ldr	r3, [r7, #20]
     ee2:	78db      	ldrb	r3, [r3, #3]
     ee4:	2b00      	cmp	r3, #0
     ee6:	d001      	beq.n	eec <_tcc_build_faults+0x94>
     ee8:	2308      	movs	r3, #8
     eea:	e000      	b.n	eee <_tcc_build_faults+0x96>
     eec:	2300      	movs	r3, #0
     eee:	431a      	orrs	r2, r3
     ef0:	697b      	ldr	r3, [r7, #20]
     ef2:	791b      	ldrb	r3, [r3, #4]
     ef4:	2b00      	cmp	r3, #0
     ef6:	d001      	beq.n	efc <_tcc_build_faults+0xa4>
     ef8:	2310      	movs	r3, #16
     efa:	e000      	b.n	efe <_tcc_build_faults+0xa6>
     efc:	2300      	movs	r3, #0
     efe:	431a      	orrs	r2, r3
     f00:	697b      	ldr	r3, [r7, #20]
     f02:	795b      	ldrb	r3, [r3, #5]
     f04:	0019      	movs	r1, r3
     f06:	2303      	movs	r3, #3
     f08:	400b      	ands	r3, r1
     f0a:	431a      	orrs	r2, r3
     f0c:	697b      	ldr	r3, [r7, #20]
     f0e:	799b      	ldrb	r3, [r3, #6]
     f10:	015b      	lsls	r3, r3, #5
     f12:	0019      	movs	r1, r3
     f14:	2360      	movs	r3, #96	; 0x60
     f16:	400b      	ands	r3, r1
     f18:	431a      	orrs	r2, r3
     f1a:	697b      	ldr	r3, [r7, #20]
     f1c:	79db      	ldrb	r3, [r3, #7]
     f1e:	021b      	lsls	r3, r3, #8
     f20:	0019      	movs	r1, r3
     f22:	23c0      	movs	r3, #192	; 0xc0
     f24:	009b      	lsls	r3, r3, #2
     f26:	400b      	ands	r3, r1
     f28:	431a      	orrs	r2, r3
     f2a:	697b      	ldr	r3, [r7, #20]
     f2c:	7a1b      	ldrb	r3, [r3, #8]
     f2e:	031b      	lsls	r3, r3, #12
     f30:	0019      	movs	r1, r3
     f32:	23e0      	movs	r3, #224	; 0xe0
     f34:	01db      	lsls	r3, r3, #7
     f36:	400b      	ands	r3, r1
     f38:	431a      	orrs	r2, r3
     f3a:	697b      	ldr	r3, [r7, #20]
     f3c:	7a5b      	ldrb	r3, [r3, #9]
     f3e:	029b      	lsls	r3, r3, #10
     f40:	0019      	movs	r1, r3
     f42:	23c0      	movs	r3, #192	; 0xc0
     f44:	011b      	lsls	r3, r3, #4
     f46:	400b      	ands	r3, r1
     f48:	4313      	orrs	r3, r2
     f4a:	613b      	str	r3, [r7, #16]
     f4c:	69fb      	ldr	r3, [r7, #28]
     f4e:	009b      	lsls	r3, r3, #2
     f50:	687a      	ldr	r2, [r7, #4]
     f52:	18d3      	adds	r3, r2, r3
     f54:	693a      	ldr	r2, [r7, #16]
     f56:	601a      	str	r2, [r3, #0]
     f58:	69fb      	ldr	r3, [r7, #28]
     f5a:	3301      	adds	r3, #1
     f5c:	61fb      	str	r3, [r7, #28]
     f5e:	69fb      	ldr	r3, [r7, #28]
     f60:	2b01      	cmp	r3, #1
     f62:	dd8d      	ble.n	e80 <_tcc_build_faults+0x28>
     f64:	2300      	movs	r3, #0
     f66:	0018      	movs	r0, r3
     f68:	46bd      	mov	sp, r7
     f6a:	b008      	add	sp, #32
     f6c:	bd80      	pop	{r7, pc}
     f6e:	46c0      	nop			; (mov r8, r8)
     f70:	000042e4 	.word	0x000042e4

00000f74 <_tcc_build_drvctrl>:
     f74:	b580      	push	{r7, lr}
     f76:	b088      	sub	sp, #32
     f78:	af00      	add	r7, sp, #0
     f7a:	60b9      	str	r1, [r7, #8]
     f7c:	607a      	str	r2, [r7, #4]
     f7e:	230f      	movs	r3, #15
     f80:	18fb      	adds	r3, r7, r3
     f82:	1c02      	adds	r2, r0, #0
     f84:	701a      	strb	r2, [r3, #0]
     f86:	230f      	movs	r3, #15
     f88:	18fb      	adds	r3, r7, r3
     f8a:	781a      	ldrb	r2, [r3, #0]
     f8c:	2317      	movs	r3, #23
     f8e:	18fb      	adds	r3, r7, r3
     f90:	492d      	ldr	r1, [pc, #180]	; (1048 <_tcc_build_drvctrl+0xd4>)
     f92:	5c8a      	ldrb	r2, [r1, r2]
     f94:	701a      	strb	r2, [r3, #0]
     f96:	2300      	movs	r3, #0
     f98:	61bb      	str	r3, [r7, #24]
     f9a:	2300      	movs	r3, #0
     f9c:	61fb      	str	r3, [r7, #28]
     f9e:	e048      	b.n	1032 <_tcc_build_drvctrl+0xbe>
     fa0:	68ba      	ldr	r2, [r7, #8]
     fa2:	2150      	movs	r1, #80	; 0x50
     fa4:	69fb      	ldr	r3, [r7, #28]
     fa6:	18d3      	adds	r3, r2, r3
     fa8:	185b      	adds	r3, r3, r1
     faa:	781b      	ldrb	r3, [r3, #0]
     fac:	2b00      	cmp	r3, #0
     fae:	d010      	beq.n	fd2 <_tcc_build_drvctrl+0x5e>
     fb0:	2317      	movs	r3, #23
     fb2:	18fb      	adds	r3, r7, r3
     fb4:	781a      	ldrb	r2, [r3, #0]
     fb6:	69fb      	ldr	r3, [r7, #28]
     fb8:	429a      	cmp	r2, r3
     fba:	d801      	bhi.n	fc0 <_tcc_build_drvctrl+0x4c>
     fbc:	2317      	movs	r3, #23
     fbe:	e03f      	b.n	1040 <_tcc_build_drvctrl+0xcc>
     fc0:	2380      	movs	r3, #128	; 0x80
     fc2:	025a      	lsls	r2, r3, #9
     fc4:	69fb      	ldr	r3, [r7, #28]
     fc6:	409a      	lsls	r2, r3
     fc8:	0013      	movs	r3, r2
     fca:	001a      	movs	r2, r3
     fcc:	69bb      	ldr	r3, [r7, #24]
     fce:	4313      	orrs	r3, r2
     fd0:	61bb      	str	r3, [r7, #24]
     fd2:	68ba      	ldr	r2, [r7, #8]
     fd4:	69fb      	ldr	r3, [r7, #28]
     fd6:	331c      	adds	r3, #28
     fd8:	005b      	lsls	r3, r3, #1
     fda:	18d3      	adds	r3, r2, r3
     fdc:	3309      	adds	r3, #9
     fde:	781b      	ldrb	r3, [r3, #0]
     fe0:	2b00      	cmp	r3, #0
     fe2:	d023      	beq.n	102c <_tcc_build_drvctrl+0xb8>
     fe4:	2317      	movs	r3, #23
     fe6:	18fb      	adds	r3, r7, r3
     fe8:	781a      	ldrb	r2, [r3, #0]
     fea:	69fb      	ldr	r3, [r7, #28]
     fec:	429a      	cmp	r2, r3
     fee:	d801      	bhi.n	ff4 <_tcc_build_drvctrl+0x80>
     ff0:	2317      	movs	r3, #23
     ff2:	e025      	b.n	1040 <_tcc_build_drvctrl+0xcc>
     ff4:	68ba      	ldr	r2, [r7, #8]
     ff6:	69fb      	ldr	r3, [r7, #28]
     ff8:	331c      	adds	r3, #28
     ffa:	005b      	lsls	r3, r3, #1
     ffc:	18d3      	adds	r3, r2, r3
     ffe:	3309      	adds	r3, #9
    1000:	781b      	ldrb	r3, [r3, #0]
    1002:	2b02      	cmp	r3, #2
    1004:	d10a      	bne.n	101c <_tcc_build_drvctrl+0xa8>
    1006:	2302      	movs	r3, #2
    1008:	33ff      	adds	r3, #255	; 0xff
    100a:	001a      	movs	r2, r3
    100c:	69fb      	ldr	r3, [r7, #28]
    100e:	409a      	lsls	r2, r3
    1010:	0013      	movs	r3, r2
    1012:	001a      	movs	r2, r3
    1014:	69bb      	ldr	r3, [r7, #24]
    1016:	4313      	orrs	r3, r2
    1018:	61bb      	str	r3, [r7, #24]
    101a:	e007      	b.n	102c <_tcc_build_drvctrl+0xb8>
    101c:	2201      	movs	r2, #1
    101e:	69fb      	ldr	r3, [r7, #28]
    1020:	409a      	lsls	r2, r3
    1022:	0013      	movs	r3, r2
    1024:	001a      	movs	r2, r3
    1026:	69bb      	ldr	r3, [r7, #24]
    1028:	4313      	orrs	r3, r2
    102a:	61bb      	str	r3, [r7, #24]
    102c:	69fb      	ldr	r3, [r7, #28]
    102e:	3301      	adds	r3, #1
    1030:	61fb      	str	r3, [r7, #28]
    1032:	69fb      	ldr	r3, [r7, #28]
    1034:	2b07      	cmp	r3, #7
    1036:	d9b3      	bls.n	fa0 <_tcc_build_drvctrl+0x2c>
    1038:	687b      	ldr	r3, [r7, #4]
    103a:	69ba      	ldr	r2, [r7, #24]
    103c:	601a      	str	r2, [r3, #0]
    103e:	2300      	movs	r3, #0
    1040:	0018      	movs	r0, r3
    1042:	46bd      	mov	sp, r7
    1044:	b008      	add	sp, #32
    1046:	bd80      	pop	{r7, pc}
    1048:	000042e8 	.word	0x000042e8

0000104c <_tcc_build_waves>:
    104c:	b580      	push	{r7, lr}
    104e:	b088      	sub	sp, #32
    1050:	af00      	add	r7, sp, #0
    1052:	60b9      	str	r1, [r7, #8]
    1054:	607a      	str	r2, [r7, #4]
    1056:	230f      	movs	r3, #15
    1058:	18fb      	adds	r3, r7, r3
    105a:	1c02      	adds	r2, r0, #0
    105c:	701a      	strb	r2, [r3, #0]
    105e:	230f      	movs	r3, #15
    1060:	18fb      	adds	r3, r7, r3
    1062:	781a      	ldrb	r2, [r3, #0]
    1064:	2317      	movs	r3, #23
    1066:	18fb      	adds	r3, r7, r3
    1068:	491d      	ldr	r1, [pc, #116]	; (10e0 <_tcc_build_waves+0x94>)
    106a:	5c8a      	ldrb	r2, [r1, r2]
    106c:	701a      	strb	r2, [r3, #0]
    106e:	68bb      	ldr	r3, [r7, #8]
    1070:	3310      	adds	r3, #16
    1072:	613b      	str	r3, [r7, #16]
    1074:	693b      	ldr	r3, [r7, #16]
    1076:	7a5b      	ldrb	r3, [r3, #9]
    1078:	011b      	lsls	r3, r3, #4
    107a:	001a      	movs	r2, r3
    107c:	2330      	movs	r3, #48	; 0x30
    107e:	401a      	ands	r2, r3
    1080:	693b      	ldr	r3, [r7, #16]
    1082:	7a1b      	ldrb	r3, [r3, #8]
    1084:	0019      	movs	r1, r3
    1086:	2307      	movs	r3, #7
    1088:	400b      	ands	r3, r1
    108a:	4313      	orrs	r3, r2
    108c:	61bb      	str	r3, [r7, #24]
    108e:	2300      	movs	r3, #0
    1090:	61fb      	str	r3, [r7, #28]
    1092:	e01a      	b.n	10ca <_tcc_build_waves+0x7e>
    1094:	693a      	ldr	r2, [r7, #16]
    1096:	69fb      	ldr	r3, [r7, #28]
    1098:	18d3      	adds	r3, r2, r3
    109a:	3304      	adds	r3, #4
    109c:	781b      	ldrb	r3, [r3, #0]
    109e:	2b00      	cmp	r3, #0
    10a0:	d010      	beq.n	10c4 <_tcc_build_waves+0x78>
    10a2:	2317      	movs	r3, #23
    10a4:	18fb      	adds	r3, r7, r3
    10a6:	781a      	ldrb	r2, [r3, #0]
    10a8:	69fb      	ldr	r3, [r7, #28]
    10aa:	429a      	cmp	r2, r3
    10ac:	dc01      	bgt.n	10b2 <_tcc_build_waves+0x66>
    10ae:	2317      	movs	r3, #23
    10b0:	e012      	b.n	10d8 <_tcc_build_waves+0x8c>
    10b2:	2380      	movs	r3, #128	; 0x80
    10b4:	025a      	lsls	r2, r3, #9
    10b6:	69fb      	ldr	r3, [r7, #28]
    10b8:	409a      	lsls	r2, r3
    10ba:	0013      	movs	r3, r2
    10bc:	001a      	movs	r2, r3
    10be:	69bb      	ldr	r3, [r7, #24]
    10c0:	4313      	orrs	r3, r2
    10c2:	61bb      	str	r3, [r7, #24]
    10c4:	69fb      	ldr	r3, [r7, #28]
    10c6:	3301      	adds	r3, #1
    10c8:	61fb      	str	r3, [r7, #28]
    10ca:	69fb      	ldr	r3, [r7, #28]
    10cc:	2b03      	cmp	r3, #3
    10ce:	dde1      	ble.n	1094 <_tcc_build_waves+0x48>
    10d0:	687b      	ldr	r3, [r7, #4]
    10d2:	69ba      	ldr	r2, [r7, #24]
    10d4:	601a      	str	r2, [r3, #0]
    10d6:	2300      	movs	r3, #0
    10d8:	0018      	movs	r0, r3
    10da:	46bd      	mov	sp, r7
    10dc:	b008      	add	sp, #32
    10de:	bd80      	pop	{r7, pc}
    10e0:	000042e4 	.word	0x000042e4

000010e4 <tcc_init>:
    10e4:	b590      	push	{r4, r7, lr}
    10e6:	b091      	sub	sp, #68	; 0x44
    10e8:	af00      	add	r7, sp, #0
    10ea:	60f8      	str	r0, [r7, #12]
    10ec:	60b9      	str	r1, [r7, #8]
    10ee:	607a      	str	r2, [r7, #4]
    10f0:	233b      	movs	r3, #59	; 0x3b
    10f2:	18fc      	adds	r4, r7, r3
    10f4:	68bb      	ldr	r3, [r7, #8]
    10f6:	0018      	movs	r0, r3
    10f8:	4bc4      	ldr	r3, [pc, #784]	; (140c <tcc_init+0x328>)
    10fa:	4798      	blx	r3
    10fc:	0003      	movs	r3, r0
    10fe:	7023      	strb	r3, [r4, #0]
    1100:	233b      	movs	r3, #59	; 0x3b
    1102:	18fb      	adds	r3, r7, r3
    1104:	781a      	ldrb	r2, [r3, #0]
    1106:	4bc2      	ldr	r3, [pc, #776]	; (1410 <tcc_init+0x32c>)
    1108:	0092      	lsls	r2, r2, #2
    110a:	58d3      	ldr	r3, [r2, r3]
    110c:	0019      	movs	r1, r3
    110e:	2002      	movs	r0, #2
    1110:	4bc0      	ldr	r3, [pc, #768]	; (1414 <tcc_init+0x330>)
    1112:	4798      	blx	r3
    1114:	68bb      	ldr	r3, [r7, #8]
    1116:	681b      	ldr	r3, [r3, #0]
    1118:	2202      	movs	r2, #2
    111a:	4013      	ands	r3, r2
    111c:	d001      	beq.n	1122 <tcc_init+0x3e>
    111e:	231c      	movs	r3, #28
    1120:	e1be      	b.n	14a0 <tcc_init+0x3bc>
    1122:	68bb      	ldr	r3, [r7, #8]
    1124:	681b      	ldr	r3, [r3, #0]
    1126:	2201      	movs	r2, #1
    1128:	4013      	ands	r3, r2
    112a:	d001      	beq.n	1130 <tcc_init+0x4c>
    112c:	231c      	movs	r3, #28
    112e:	e1b7      	b.n	14a0 <tcc_init+0x3bc>
    1130:	233b      	movs	r3, #59	; 0x3b
    1132:	18fb      	adds	r3, r7, r3
    1134:	781a      	ldrb	r2, [r3, #0]
    1136:	4bb8      	ldr	r3, [pc, #736]	; (1418 <tcc_init+0x334>)
    1138:	0092      	lsls	r2, r2, #2
    113a:	58d3      	ldr	r3, [r2, r3]
    113c:	637b      	str	r3, [r7, #52]	; 0x34
    113e:	687b      	ldr	r3, [r7, #4]
    1140:	681a      	ldr	r2, [r3, #0]
    1142:	6b7b      	ldr	r3, [r7, #52]	; 0x34
    1144:	429a      	cmp	r2, r3
    1146:	d804      	bhi.n	1152 <tcc_init+0x6e>
    1148:	687b      	ldr	r3, [r7, #4]
    114a:	685a      	ldr	r2, [r3, #4]
    114c:	6b7b      	ldr	r3, [r7, #52]	; 0x34
    114e:	429a      	cmp	r2, r3
    1150:	d901      	bls.n	1156 <tcc_init+0x72>
    1152:	2317      	movs	r3, #23
    1154:	e1a4      	b.n	14a0 <tcc_init+0x3bc>
    1156:	2300      	movs	r3, #0
    1158:	63fb      	str	r3, [r7, #60]	; 0x3c
    115a:	e00e      	b.n	117a <tcc_init+0x96>
    115c:	687a      	ldr	r2, [r7, #4]
    115e:	6bfb      	ldr	r3, [r7, #60]	; 0x3c
    1160:	3306      	adds	r3, #6
    1162:	009b      	lsls	r3, r3, #2
    1164:	18d3      	adds	r3, r2, r3
    1166:	3304      	adds	r3, #4
    1168:	681a      	ldr	r2, [r3, #0]
    116a:	6b7b      	ldr	r3, [r7, #52]	; 0x34
    116c:	429a      	cmp	r2, r3
    116e:	d901      	bls.n	1174 <tcc_init+0x90>
    1170:	2317      	movs	r3, #23
    1172:	e195      	b.n	14a0 <tcc_init+0x3bc>
    1174:	6bfb      	ldr	r3, [r7, #60]	; 0x3c
    1176:	3301      	adds	r3, #1
    1178:	63fb      	str	r3, [r7, #60]	; 0x3c
    117a:	6bfb      	ldr	r3, [r7, #60]	; 0x3c
    117c:	2b03      	cmp	r3, #3
    117e:	dded      	ble.n	115c <tcc_init+0x78>
    1180:	2300      	movs	r3, #0
    1182:	63fb      	str	r3, [r7, #60]	; 0x3c
    1184:	e019      	b.n	11ba <tcc_init+0xd6>
    1186:	687a      	ldr	r2, [r7, #4]
    1188:	2198      	movs	r1, #152	; 0x98
    118a:	6bfb      	ldr	r3, [r7, #60]	; 0x3c
    118c:	18d3      	adds	r3, r2, r3
    118e:	185b      	adds	r3, r3, r1
    1190:	781b      	ldrb	r3, [r3, #0]
    1192:	2201      	movs	r2, #1
    1194:	4053      	eors	r3, r2
    1196:	b2db      	uxtb	r3, r3
    1198:	2b00      	cmp	r3, #0
    119a:	d10a      	bne.n	11b2 <tcc_init+0xce>
    119c:	233b      	movs	r3, #59	; 0x3b
    119e:	18fb      	adds	r3, r7, r3
    11a0:	781b      	ldrb	r3, [r3, #0]
    11a2:	4a9e      	ldr	r2, [pc, #632]	; (141c <tcc_init+0x338>)
    11a4:	5cd3      	ldrb	r3, [r2, r3]
    11a6:	001a      	movs	r2, r3
    11a8:	6bfb      	ldr	r3, [r7, #60]	; 0x3c
    11aa:	429a      	cmp	r2, r3
    11ac:	dc02      	bgt.n	11b4 <tcc_init+0xd0>
    11ae:	2317      	movs	r3, #23
    11b0:	e176      	b.n	14a0 <tcc_init+0x3bc>
    11b2:	46c0      	nop			; (mov r8, r8)
    11b4:	6bfb      	ldr	r3, [r7, #60]	; 0x3c
    11b6:	3301      	adds	r3, #1
    11b8:	63fb      	str	r3, [r7, #60]	; 0x3c
    11ba:	6bfb      	ldr	r3, [r7, #60]	; 0x3c
    11bc:	2b07      	cmp	r3, #7
    11be:	dde2      	ble.n	1186 <tcc_init+0xa2>
    11c0:	2300      	movs	r3, #0
    11c2:	62fb      	str	r3, [r7, #44]	; 0x2c
    11c4:	2333      	movs	r3, #51	; 0x33
    11c6:	18fc      	adds	r4, r7, r3
    11c8:	232c      	movs	r3, #44	; 0x2c
    11ca:	18fa      	adds	r2, r7, r3
    11cc:	6879      	ldr	r1, [r7, #4]
    11ce:	233b      	movs	r3, #59	; 0x3b
    11d0:	18fb      	adds	r3, r7, r3
    11d2:	781b      	ldrb	r3, [r3, #0]
    11d4:	0018      	movs	r0, r3
    11d6:	4b92      	ldr	r3, [pc, #584]	; (1420 <tcc_init+0x33c>)
    11d8:	4798      	blx	r3
    11da:	0003      	movs	r3, r0
    11dc:	7023      	strb	r3, [r4, #0]
    11de:	2333      	movs	r3, #51	; 0x33
    11e0:	18fb      	adds	r3, r7, r3
    11e2:	781b      	ldrb	r3, [r3, #0]
    11e4:	2b00      	cmp	r3, #0
    11e6:	d003      	beq.n	11f0 <tcc_init+0x10c>
    11e8:	2333      	movs	r3, #51	; 0x33
    11ea:	18fb      	adds	r3, r7, r3
    11ec:	781b      	ldrb	r3, [r3, #0]
    11ee:	e157      	b.n	14a0 <tcc_init+0x3bc>
    11f0:	232b      	movs	r3, #43	; 0x2b
    11f2:	18fa      	adds	r2, r7, r3
    11f4:	6879      	ldr	r1, [r7, #4]
    11f6:	233b      	movs	r3, #59	; 0x3b
    11f8:	18fb      	adds	r3, r7, r3
    11fa:	781b      	ldrb	r3, [r3, #0]
    11fc:	0018      	movs	r0, r3
    11fe:	4b89      	ldr	r3, [pc, #548]	; (1424 <tcc_init+0x340>)
    1200:	4798      	blx	r3
    1202:	2333      	movs	r3, #51	; 0x33
    1204:	18fc      	adds	r4, r7, r3
    1206:	2320      	movs	r3, #32
    1208:	18fa      	adds	r2, r7, r3
    120a:	6879      	ldr	r1, [r7, #4]
    120c:	233b      	movs	r3, #59	; 0x3b
    120e:	18fb      	adds	r3, r7, r3
    1210:	781b      	ldrb	r3, [r3, #0]
    1212:	0018      	movs	r0, r3
    1214:	4b84      	ldr	r3, [pc, #528]	; (1428 <tcc_init+0x344>)
    1216:	4798      	blx	r3
    1218:	0003      	movs	r3, r0
    121a:	7023      	strb	r3, [r4, #0]
    121c:	2333      	movs	r3, #51	; 0x33
    121e:	18fb      	adds	r3, r7, r3
    1220:	781b      	ldrb	r3, [r3, #0]
    1222:	2b00      	cmp	r3, #0
    1224:	d003      	beq.n	122e <tcc_init+0x14a>
    1226:	2333      	movs	r3, #51	; 0x33
    1228:	18fb      	adds	r3, r7, r3
    122a:	781b      	ldrb	r3, [r3, #0]
    122c:	e138      	b.n	14a0 <tcc_init+0x3bc>
    122e:	2300      	movs	r3, #0
    1230:	61fb      	str	r3, [r7, #28]
    1232:	2333      	movs	r3, #51	; 0x33
    1234:	18fc      	adds	r4, r7, r3
    1236:	231c      	movs	r3, #28
    1238:	18fa      	adds	r2, r7, r3
    123a:	6879      	ldr	r1, [r7, #4]
    123c:	233b      	movs	r3, #59	; 0x3b
    123e:	18fb      	adds	r3, r7, r3
    1240:	781b      	ldrb	r3, [r3, #0]
    1242:	0018      	movs	r0, r3
    1244:	4b79      	ldr	r3, [pc, #484]	; (142c <tcc_init+0x348>)
    1246:	4798      	blx	r3
    1248:	0003      	movs	r3, r0
    124a:	7023      	strb	r3, [r4, #0]
    124c:	2333      	movs	r3, #51	; 0x33
    124e:	18fb      	adds	r3, r7, r3
    1250:	781b      	ldrb	r3, [r3, #0]
    1252:	2b00      	cmp	r3, #0
    1254:	d003      	beq.n	125e <tcc_init+0x17a>
    1256:	2333      	movs	r3, #51	; 0x33
    1258:	18fb      	adds	r3, r7, r3
    125a:	781b      	ldrb	r3, [r3, #0]
    125c:	e120      	b.n	14a0 <tcc_init+0x3bc>
    125e:	2333      	movs	r3, #51	; 0x33
    1260:	18fc      	adds	r4, r7, r3
    1262:	2318      	movs	r3, #24
    1264:	18fa      	adds	r2, r7, r3
    1266:	6879      	ldr	r1, [r7, #4]
    1268:	233b      	movs	r3, #59	; 0x3b
    126a:	18fb      	adds	r3, r7, r3
    126c:	781b      	ldrb	r3, [r3, #0]
    126e:	0018      	movs	r0, r3
    1270:	4b6f      	ldr	r3, [pc, #444]	; (1430 <tcc_init+0x34c>)
    1272:	4798      	blx	r3
    1274:	0003      	movs	r3, r0
    1276:	7023      	strb	r3, [r4, #0]
    1278:	2333      	movs	r3, #51	; 0x33
    127a:	18fb      	adds	r3, r7, r3
    127c:	781b      	ldrb	r3, [r3, #0]
    127e:	2b00      	cmp	r3, #0
    1280:	d003      	beq.n	128a <tcc_init+0x1a6>
    1282:	2333      	movs	r3, #51	; 0x33
    1284:	18fb      	adds	r3, r7, r3
    1286:	781b      	ldrb	r3, [r3, #0]
    1288:	e10a      	b.n	14a0 <tcc_init+0x3bc>
    128a:	2300      	movs	r3, #0
    128c:	63fb      	str	r3, [r7, #60]	; 0x3c
    128e:	e009      	b.n	12a4 <tcc_init+0x1c0>
    1290:	68fa      	ldr	r2, [r7, #12]
    1292:	6bfb      	ldr	r3, [r7, #60]	; 0x3c
    1294:	009b      	lsls	r3, r3, #2
    1296:	18d3      	adds	r3, r2, r3
    1298:	3304      	adds	r3, #4
    129a:	2200      	movs	r2, #0
    129c:	601a      	str	r2, [r3, #0]
    129e:	6bfb      	ldr	r3, [r7, #60]	; 0x3c
    12a0:	3301      	adds	r3, #1
    12a2:	63fb      	str	r3, [r7, #60]	; 0x3c
    12a4:	6bfb      	ldr	r3, [r7, #60]	; 0x3c
    12a6:	2b0b      	cmp	r3, #11
    12a8:	ddf2      	ble.n	1290 <tcc_init+0x1ac>
    12aa:	68fb      	ldr	r3, [r7, #12]
    12ac:	2200      	movs	r2, #0
    12ae:	635a      	str	r2, [r3, #52]	; 0x34
    12b0:	68fb      	ldr	r3, [r7, #12]
    12b2:	2200      	movs	r2, #0
    12b4:	639a      	str	r2, [r3, #56]	; 0x38
    12b6:	233b      	movs	r3, #59	; 0x3b
    12b8:	18fb      	adds	r3, r7, r3
    12ba:	781a      	ldrb	r2, [r3, #0]
    12bc:	4b5d      	ldr	r3, [pc, #372]	; (1434 <tcc_init+0x350>)
    12be:	0092      	lsls	r2, r2, #2
    12c0:	68f9      	ldr	r1, [r7, #12]
    12c2:	50d1      	str	r1, [r2, r3]
    12c4:	68fb      	ldr	r3, [r7, #12]
    12c6:	68ba      	ldr	r2, [r7, #8]
    12c8:	601a      	str	r2, [r3, #0]
    12ca:	687b      	ldr	r3, [r7, #4]
    12cc:	22a0      	movs	r2, #160	; 0xa0
    12ce:	5c99      	ldrb	r1, [r3, r2]
    12d0:	68fb      	ldr	r3, [r7, #12]
    12d2:	223c      	movs	r2, #60	; 0x3c
    12d4:	5499      	strb	r1, [r3, r2]
    12d6:	2314      	movs	r3, #20
    12d8:	18fb      	adds	r3, r7, r3
    12da:	0018      	movs	r0, r3
    12dc:	4b56      	ldr	r3, [pc, #344]	; (1438 <tcc_init+0x354>)
    12de:	4798      	blx	r3
    12e0:	687b      	ldr	r3, [r7, #4]
    12e2:	7a9a      	ldrb	r2, [r3, #10]
    12e4:	2314      	movs	r3, #20
    12e6:	18fb      	adds	r3, r7, r3
    12e8:	701a      	strb	r2, [r3, #0]
    12ea:	233b      	movs	r3, #59	; 0x3b
    12ec:	18fb      	adds	r3, r7, r3
    12ee:	781b      	ldrb	r3, [r3, #0]
    12f0:	4a52      	ldr	r2, [pc, #328]	; (143c <tcc_init+0x358>)
    12f2:	5cd3      	ldrb	r3, [r2, r3]
    12f4:	2214      	movs	r2, #20
    12f6:	18ba      	adds	r2, r7, r2
    12f8:	0011      	movs	r1, r2
    12fa:	0018      	movs	r0, r3
    12fc:	4b50      	ldr	r3, [pc, #320]	; (1440 <tcc_init+0x35c>)
    12fe:	4798      	blx	r3
    1300:	233b      	movs	r3, #59	; 0x3b
    1302:	18fb      	adds	r3, r7, r3
    1304:	781b      	ldrb	r3, [r3, #0]
    1306:	4a4d      	ldr	r2, [pc, #308]	; (143c <tcc_init+0x358>)
    1308:	5cd3      	ldrb	r3, [r2, r3]
    130a:	0018      	movs	r0, r3
    130c:	4b4d      	ldr	r3, [pc, #308]	; (1444 <tcc_init+0x360>)
    130e:	4798      	blx	r3
    1310:	2300      	movs	r3, #0
    1312:	63fb      	str	r3, [r7, #60]	; 0x3c
    1314:	e02d      	b.n	1372 <tcc_init+0x28e>
    1316:	687a      	ldr	r2, [r7, #4]
    1318:	2198      	movs	r1, #152	; 0x98
    131a:	6bfb      	ldr	r3, [r7, #60]	; 0x3c
    131c:	18d3      	adds	r3, r2, r3
    131e:	185b      	adds	r3, r3, r1
    1320:	781b      	ldrb	r3, [r3, #0]
    1322:	2201      	movs	r2, #1
    1324:	4053      	eors	r3, r2
    1326:	b2db      	uxtb	r3, r3
    1328:	2b00      	cmp	r3, #0
    132a:	d11e      	bne.n	136a <tcc_init+0x286>
    132c:	2310      	movs	r3, #16
    132e:	18fb      	adds	r3, r7, r3
    1330:	0018      	movs	r0, r3
    1332:	4b45      	ldr	r3, [pc, #276]	; (1448 <tcc_init+0x364>)
    1334:	4798      	blx	r3
    1336:	687b      	ldr	r3, [r7, #4]
    1338:	6bfa      	ldr	r2, [r7, #60]	; 0x3c
    133a:	321e      	adds	r2, #30
    133c:	0092      	lsls	r2, r2, #2
    133e:	58d3      	ldr	r3, [r2, r3]
    1340:	b2da      	uxtb	r2, r3
    1342:	2310      	movs	r3, #16
    1344:	18fb      	adds	r3, r7, r3
    1346:	701a      	strb	r2, [r3, #0]
    1348:	2310      	movs	r3, #16
    134a:	18fb      	adds	r3, r7, r3
    134c:	2201      	movs	r2, #1
    134e:	705a      	strb	r2, [r3, #1]
    1350:	687b      	ldr	r3, [r7, #4]
    1352:	6bfa      	ldr	r2, [r7, #60]	; 0x3c
    1354:	3216      	adds	r2, #22
    1356:	0092      	lsls	r2, r2, #2
    1358:	58d3      	ldr	r3, [r2, r3]
    135a:	b2db      	uxtb	r3, r3
    135c:	2210      	movs	r2, #16
    135e:	18ba      	adds	r2, r7, r2
    1360:	0011      	movs	r1, r2
    1362:	0018      	movs	r0, r3
    1364:	4b39      	ldr	r3, [pc, #228]	; (144c <tcc_init+0x368>)
    1366:	4798      	blx	r3
    1368:	e000      	b.n	136c <tcc_init+0x288>
    136a:	46c0      	nop			; (mov r8, r8)
    136c:	6bfb      	ldr	r3, [r7, #60]	; 0x3c
    136e:	3301      	adds	r3, #1
    1370:	63fb      	str	r3, [r7, #60]	; 0x3c
    1372:	233b      	movs	r3, #59	; 0x3b
    1374:	18fb      	adds	r3, r7, r3
    1376:	781b      	ldrb	r3, [r3, #0]
    1378:	4a28      	ldr	r2, [pc, #160]	; (141c <tcc_init+0x338>)
    137a:	5cd3      	ldrb	r3, [r2, r3]
    137c:	001a      	movs	r2, r3
    137e:	6bfb      	ldr	r3, [r7, #60]	; 0x3c
    1380:	429a      	cmp	r2, r3
    1382:	dcc8      	bgt.n	1316 <tcc_init+0x232>
    1384:	6afa      	ldr	r2, [r7, #44]	; 0x2c
    1386:	68bb      	ldr	r3, [r7, #8]
    1388:	601a      	str	r2, [r3, #0]
    138a:	46c0      	nop			; (mov r8, r8)
    138c:	68bb      	ldr	r3, [r7, #8]
    138e:	689b      	ldr	r3, [r3, #8]
    1390:	2204      	movs	r2, #4
    1392:	4013      	ands	r3, r2
    1394:	d1fa      	bne.n	138c <tcc_init+0x2a8>
    1396:	68bb      	ldr	r3, [r7, #8]
    1398:	22ff      	movs	r2, #255	; 0xff
    139a:	711a      	strb	r2, [r3, #4]
    139c:	46c0      	nop			; (mov r8, r8)
    139e:	68bb      	ldr	r3, [r7, #8]
    13a0:	689b      	ldr	r3, [r3, #8]
    13a2:	2204      	movs	r2, #4
    13a4:	4013      	ands	r3, r2
    13a6:	d1fa      	bne.n	139e <tcc_init+0x2ba>
    13a8:	232b      	movs	r3, #43	; 0x2b
    13aa:	18fb      	adds	r3, r7, r3
    13ac:	781a      	ldrb	r2, [r3, #0]
    13ae:	68bb      	ldr	r3, [r7, #8]
    13b0:	715a      	strb	r2, [r3, #5]
    13b2:	2320      	movs	r3, #32
    13b4:	18fb      	adds	r3, r7, r3
    13b6:	681a      	ldr	r2, [r3, #0]
    13b8:	68bb      	ldr	r3, [r7, #8]
    13ba:	60da      	str	r2, [r3, #12]
    13bc:	2320      	movs	r3, #32
    13be:	18fb      	adds	r3, r7, r3
    13c0:	685a      	ldr	r2, [r3, #4]
    13c2:	68bb      	ldr	r3, [r7, #8]
    13c4:	611a      	str	r2, [r3, #16]
    13c6:	69fa      	ldr	r2, [r7, #28]
    13c8:	68bb      	ldr	r3, [r7, #8]
    13ca:	619a      	str	r2, [r3, #24]
    13cc:	46c0      	nop			; (mov r8, r8)
    13ce:	68bb      	ldr	r3, [r7, #8]
    13d0:	689b      	ldr	r3, [r3, #8]
    13d2:	4a1f      	ldr	r2, [pc, #124]	; (1450 <tcc_init+0x36c>)
    13d4:	4013      	ands	r3, r2
    13d6:	d1fa      	bne.n	13ce <tcc_init+0x2ea>
    13d8:	69ba      	ldr	r2, [r7, #24]
    13da:	68bb      	ldr	r3, [r7, #8]
    13dc:	63da      	str	r2, [r3, #60]	; 0x3c
    13de:	46c0      	nop			; (mov r8, r8)
    13e0:	68bb      	ldr	r3, [r7, #8]
    13e2:	689b      	ldr	r3, [r3, #8]
    13e4:	2210      	movs	r2, #16
    13e6:	4013      	ands	r3, r2
    13e8:	d1fa      	bne.n	13e0 <tcc_init+0x2fc>
    13ea:	687b      	ldr	r3, [r7, #4]
    13ec:	681a      	ldr	r2, [r3, #0]
    13ee:	68bb      	ldr	r3, [r7, #8]
    13f0:	635a      	str	r2, [r3, #52]	; 0x34
    13f2:	46c0      	nop			; (mov r8, r8)
    13f4:	68bb      	ldr	r3, [r7, #8]
    13f6:	689b      	ldr	r3, [r3, #8]
    13f8:	4a16      	ldr	r2, [pc, #88]	; (1454 <tcc_init+0x370>)
    13fa:	4013      	ands	r3, r2
    13fc:	d1fa      	bne.n	13f4 <tcc_init+0x310>
    13fe:	687b      	ldr	r3, [r7, #4]
    1400:	685a      	ldr	r2, [r3, #4]
    1402:	68bb      	ldr	r3, [r7, #8]
    1404:	641a      	str	r2, [r3, #64]	; 0x40
    1406:	2300      	movs	r3, #0
    1408:	63fb      	str	r3, [r7, #60]	; 0x3c
    140a:	e03f      	b.n	148c <tcc_init+0x3a8>
    140c:	00000a4d 	.word	0x00000a4d
    1410:	000042cc 	.word	0x000042cc
    1414:	000009c9 	.word	0x000009c9
    1418:	000042d8 	.word	0x000042d8
    141c:	000042e8 	.word	0x000042e8
    1420:	00000d59 	.word	0x00000d59
    1424:	00000dfd 	.word	0x00000dfd
    1428:	00000e59 	.word	0x00000e59
    142c:	00000f75 	.word	0x00000f75
    1430:	0000104d 	.word	0x0000104d
    1434:	200000dc 	.word	0x200000dc
    1438:	000009b1 	.word	0x000009b1
    143c:	000042c8 	.word	0x000042c8
    1440:	00003839 	.word	0x00003839
    1444:	0000387d 	.word	0x0000387d
    1448:	00000a25 	.word	0x00000a25
    144c:	00003b25 	.word	0x00003b25
    1450:	00020040 	.word	0x00020040
    1454:	00040080 	.word	0x00040080
    1458:	46c0      	nop			; (mov r8, r8)
    145a:	68bb      	ldr	r3, [r7, #8]
    145c:	689b      	ldr	r3, [r3, #8]
    145e:	4912      	ldr	r1, [pc, #72]	; (14a8 <tcc_init+0x3c4>)
    1460:	6bfa      	ldr	r2, [r7, #60]	; 0x3c
    1462:	4091      	lsls	r1, r2
    1464:	000a      	movs	r2, r1
    1466:	4013      	ands	r3, r2
    1468:	d1f7      	bne.n	145a <tcc_init+0x376>
    146a:	687a      	ldr	r2, [r7, #4]
    146c:	6bfb      	ldr	r3, [r7, #60]	; 0x3c
    146e:	3306      	adds	r3, #6
    1470:	009b      	lsls	r3, r3, #2
    1472:	18d3      	adds	r3, r2, r3
    1474:	3304      	adds	r3, #4
    1476:	681a      	ldr	r2, [r3, #0]
    1478:	68b9      	ldr	r1, [r7, #8]
    147a:	6bfb      	ldr	r3, [r7, #60]	; 0x3c
    147c:	3310      	adds	r3, #16
    147e:	009b      	lsls	r3, r3, #2
    1480:	18cb      	adds	r3, r1, r3
    1482:	3304      	adds	r3, #4
    1484:	601a      	str	r2, [r3, #0]
    1486:	6bfb      	ldr	r3, [r7, #60]	; 0x3c
    1488:	3301      	adds	r3, #1
    148a:	63fb      	str	r3, [r7, #60]	; 0x3c
    148c:	233b      	movs	r3, #59	; 0x3b
    148e:	18fb      	adds	r3, r7, r3
    1490:	781b      	ldrb	r3, [r3, #0]
    1492:	4a06      	ldr	r2, [pc, #24]	; (14ac <tcc_init+0x3c8>)
    1494:	5cd3      	ldrb	r3, [r2, r3]
    1496:	001a      	movs	r2, r3
    1498:	6bfb      	ldr	r3, [r7, #60]	; 0x3c
    149a:	429a      	cmp	r2, r3
    149c:	dcdc      	bgt.n	1458 <tcc_init+0x374>
    149e:	2300      	movs	r3, #0
    14a0:	0018      	movs	r0, r3
    14a2:	46bd      	mov	sp, r7
    14a4:	b011      	add	sp, #68	; 0x44
    14a6:	bd90      	pop	{r4, r7, pc}
    14a8:	00080100 	.word	0x00080100
    14ac:	000042e4 	.word	0x000042e4

000014b0 <TCC0_Handler>:
    14b0:	b580      	push	{r7, lr}
    14b2:	af00      	add	r7, sp, #0
    14b4:	2000      	movs	r0, #0
    14b6:	4b02      	ldr	r3, [pc, #8]	; (14c0 <TCC0_Handler+0x10>)
    14b8:	4798      	blx	r3
    14ba:	46c0      	nop			; (mov r8, r8)
    14bc:	46bd      	mov	sp, r7
    14be:	bd80      	pop	{r7, pc}
    14c0:	000014ed 	.word	0x000014ed

000014c4 <TCC1_Handler>:
    14c4:	b580      	push	{r7, lr}
    14c6:	af00      	add	r7, sp, #0
    14c8:	2001      	movs	r0, #1
    14ca:	4b02      	ldr	r3, [pc, #8]	; (14d4 <TCC1_Handler+0x10>)
    14cc:	4798      	blx	r3
    14ce:	46c0      	nop			; (mov r8, r8)
    14d0:	46bd      	mov	sp, r7
    14d2:	bd80      	pop	{r7, pc}
    14d4:	000014ed 	.word	0x000014ed

000014d8 <TCC2_Handler>:
    14d8:	b580      	push	{r7, lr}
    14da:	af00      	add	r7, sp, #0
    14dc:	2002      	movs	r0, #2
    14de:	4b02      	ldr	r3, [pc, #8]	; (14e8 <TCC2_Handler+0x10>)
    14e0:	4798      	blx	r3
    14e2:	46c0      	nop			; (mov r8, r8)
    14e4:	46bd      	mov	sp, r7
    14e6:	bd80      	pop	{r7, pc}
    14e8:	000014ed 	.word	0x000014ed

000014ec <_tcc_interrupt_handler>:
    14ec:	b580      	push	{r7, lr}
    14ee:	b086      	sub	sp, #24
    14f0:	af00      	add	r7, sp, #0
    14f2:	0002      	movs	r2, r0
    14f4:	1dfb      	adds	r3, r7, #7
    14f6:	701a      	strb	r2, [r3, #0]
    14f8:	1dfb      	adds	r3, r7, #7
    14fa:	781a      	ldrb	r2, [r3, #0]
    14fc:	4b18      	ldr	r3, [pc, #96]	; (1560 <_tcc_interrupt_handler+0x74>)
    14fe:	0092      	lsls	r2, r2, #2
    1500:	58d3      	ldr	r3, [r2, r3]
    1502:	613b      	str	r3, [r7, #16]
    1504:	693b      	ldr	r3, [r7, #16]
    1506:	681b      	ldr	r3, [r3, #0]
    1508:	6ada      	ldr	r2, [r3, #44]	; 0x2c
    150a:	693b      	ldr	r3, [r7, #16]
    150c:	6b5b      	ldr	r3, [r3, #52]	; 0x34
    150e:	401a      	ands	r2, r3
    1510:	693b      	ldr	r3, [r7, #16]
    1512:	6b9b      	ldr	r3, [r3, #56]	; 0x38
    1514:	4013      	ands	r3, r2
    1516:	60fb      	str	r3, [r7, #12]
    1518:	2300      	movs	r3, #0
    151a:	617b      	str	r3, [r7, #20]
    151c:	e019      	b.n	1552 <_tcc_interrupt_handler+0x66>
    151e:	4b11      	ldr	r3, [pc, #68]	; (1564 <_tcc_interrupt_handler+0x78>)
    1520:	697a      	ldr	r2, [r7, #20]
    1522:	0092      	lsls	r2, r2, #2
    1524:	58d3      	ldr	r3, [r2, r3]
    1526:	68fa      	ldr	r2, [r7, #12]
    1528:	4013      	ands	r3, r2
    152a:	d00f      	beq.n	154c <_tcc_interrupt_handler+0x60>
    152c:	693a      	ldr	r2, [r7, #16]
    152e:	697b      	ldr	r3, [r7, #20]
    1530:	009b      	lsls	r3, r3, #2
    1532:	18d3      	adds	r3, r2, r3
    1534:	3304      	adds	r3, #4
    1536:	681b      	ldr	r3, [r3, #0]
    1538:	693a      	ldr	r2, [r7, #16]
    153a:	0010      	movs	r0, r2
    153c:	4798      	blx	r3
    153e:	693b      	ldr	r3, [r7, #16]
    1540:	681b      	ldr	r3, [r3, #0]
    1542:	4a08      	ldr	r2, [pc, #32]	; (1564 <_tcc_interrupt_handler+0x78>)
    1544:	6979      	ldr	r1, [r7, #20]
    1546:	0089      	lsls	r1, r1, #2
    1548:	588a      	ldr	r2, [r1, r2]
    154a:	62da      	str	r2, [r3, #44]	; 0x2c
    154c:	697b      	ldr	r3, [r7, #20]
    154e:	3301      	adds	r3, #1
    1550:	617b      	str	r3, [r7, #20]
    1552:	697b      	ldr	r3, [r7, #20]
    1554:	2b0b      	cmp	r3, #11
    1556:	dde2      	ble.n	151e <_tcc_interrupt_handler+0x32>
    1558:	46c0      	nop			; (mov r8, r8)
    155a:	46bd      	mov	sp, r7
    155c:	b006      	add	sp, #24
    155e:	bd80      	pop	{r7, pc}
    1560:	200000dc 	.word	0x200000dc
    1564:	000042ec 	.word	0x000042ec

00001568 <TC3_Handler>:
    1568:	b580      	push	{r7, lr}
    156a:	af00      	add	r7, sp, #0
    156c:	2000      	movs	r0, #0
    156e:	4b02      	ldr	r3, [pc, #8]	; (1578 <TC3_Handler+0x10>)
    1570:	4798      	blx	r3
    1572:	46c0      	nop			; (mov r8, r8)
    1574:	46bd      	mov	sp, r7
    1576:	bd80      	pop	{r7, pc}
    1578:	000015a5 	.word	0x000015a5

0000157c <TC4_Handler>:
    157c:	b580      	push	{r7, lr}
    157e:	af00      	add	r7, sp, #0
    1580:	2001      	movs	r0, #1
    1582:	4b02      	ldr	r3, [pc, #8]	; (158c <TC4_Handler+0x10>)
    1584:	4798      	blx	r3
    1586:	46c0      	nop			; (mov r8, r8)
    1588:	46bd      	mov	sp, r7
    158a:	bd80      	pop	{r7, pc}
    158c:	000015a5 	.word	0x000015a5

00001590 <TC5_Handler>:
    1590:	b580      	push	{r7, lr}
    1592:	af00      	add	r7, sp, #0
    1594:	2002      	movs	r0, #2
    1596:	4b02      	ldr	r3, [pc, #8]	; (15a0 <TC5_Handler+0x10>)
    1598:	4798      	blx	r3
    159a:	46c0      	nop			; (mov r8, r8)
    159c:	46bd      	mov	sp, r7
    159e:	bd80      	pop	{r7, pc}
    15a0:	000015a5 	.word	0x000015a5

000015a4 <_tc_interrupt_handler>:
    15a4:	b580      	push	{r7, lr}
    15a6:	b084      	sub	sp, #16
    15a8:	af00      	add	r7, sp, #0
    15aa:	0002      	movs	r2, r0
    15ac:	1dfb      	adds	r3, r7, #7
    15ae:	701a      	strb	r2, [r3, #0]
    15b0:	1dfb      	adds	r3, r7, #7
    15b2:	781a      	ldrb	r2, [r3, #0]
    15b4:	4b28      	ldr	r3, [pc, #160]	; (1658 <_tc_interrupt_handler+0xb4>)
    15b6:	0092      	lsls	r2, r2, #2
    15b8:	58d3      	ldr	r3, [r2, r3]
    15ba:	60fb      	str	r3, [r7, #12]
    15bc:	68fb      	ldr	r3, [r7, #12]
    15be:	681b      	ldr	r3, [r3, #0]
    15c0:	7b9b      	ldrb	r3, [r3, #14]
    15c2:	b2db      	uxtb	r3, r3
    15c4:	68fa      	ldr	r2, [r7, #12]
    15c6:	7e12      	ldrb	r2, [r2, #24]
    15c8:	4013      	ands	r3, r2
    15ca:	b2da      	uxtb	r2, r3
    15cc:	68fb      	ldr	r3, [r7, #12]
    15ce:	7e59      	ldrb	r1, [r3, #25]
    15d0:	230b      	movs	r3, #11
    15d2:	18fb      	adds	r3, r7, r3
    15d4:	400a      	ands	r2, r1
    15d6:	701a      	strb	r2, [r3, #0]
    15d8:	230b      	movs	r3, #11
    15da:	18fb      	adds	r3, r7, r3
    15dc:	781b      	ldrb	r3, [r3, #0]
    15de:	2201      	movs	r2, #1
    15e0:	4013      	ands	r3, r2
    15e2:	d008      	beq.n	15f6 <_tc_interrupt_handler+0x52>
    15e4:	68fb      	ldr	r3, [r7, #12]
    15e6:	689b      	ldr	r3, [r3, #8]
    15e8:	68fa      	ldr	r2, [r7, #12]
    15ea:	0010      	movs	r0, r2
    15ec:	4798      	blx	r3
    15ee:	68fb      	ldr	r3, [r7, #12]
    15f0:	681b      	ldr	r3, [r3, #0]
    15f2:	2201      	movs	r2, #1
    15f4:	739a      	strb	r2, [r3, #14]
    15f6:	230b      	movs	r3, #11
    15f8:	18fb      	adds	r3, r7, r3
    15fa:	781b      	ldrb	r3, [r3, #0]
    15fc:	2202      	movs	r2, #2
    15fe:	4013      	ands	r3, r2
    1600:	d008      	beq.n	1614 <_tc_interrupt_handler+0x70>
    1602:	68fb      	ldr	r3, [r7, #12]
    1604:	68db      	ldr	r3, [r3, #12]
    1606:	68fa      	ldr	r2, [r7, #12]
    1608:	0010      	movs	r0, r2
    160a:	4798      	blx	r3
    160c:	68fb      	ldr	r3, [r7, #12]
    160e:	681b      	ldr	r3, [r3, #0]
    1610:	2202      	movs	r2, #2
    1612:	739a      	strb	r2, [r3, #14]
    1614:	230b      	movs	r3, #11
    1616:	18fb      	adds	r3, r7, r3
    1618:	781b      	ldrb	r3, [r3, #0]
    161a:	2210      	movs	r2, #16
    161c:	4013      	ands	r3, r2
    161e:	d008      	beq.n	1632 <_tc_interrupt_handler+0x8e>
    1620:	68fb      	ldr	r3, [r7, #12]
    1622:	691b      	ldr	r3, [r3, #16]
    1624:	68fa      	ldr	r2, [r7, #12]
    1626:	0010      	movs	r0, r2
    1628:	4798      	blx	r3
    162a:	68fb      	ldr	r3, [r7, #12]
    162c:	681b      	ldr	r3, [r3, #0]
    162e:	2210      	movs	r2, #16
    1630:	739a      	strb	r2, [r3, #14]
    1632:	230b      	movs	r3, #11
    1634:	18fb      	adds	r3, r7, r3
    1636:	781b      	ldrb	r3, [r3, #0]
    1638:	2220      	movs	r2, #32
    163a:	4013      	ands	r3, r2
    163c:	d008      	beq.n	1650 <_tc_interrupt_handler+0xac>
    163e:	68fb      	ldr	r3, [r7, #12]
    1640:	695b      	ldr	r3, [r3, #20]
    1642:	68fa      	ldr	r2, [r7, #12]
    1644:	0010      	movs	r0, r2
    1646:	4798      	blx	r3
    1648:	68fb      	ldr	r3, [r7, #12]
    164a:	681b      	ldr	r3, [r3, #0]
    164c:	2220      	movs	r2, #32
    164e:	739a      	strb	r2, [r3, #14]
    1650:	46c0      	nop			; (mov r8, r8)
    1652:	46bd      	mov	sp, r7
    1654:	b004      	add	sp, #16
    1656:	bd80      	pop	{r7, pc}
    1658:	200000e8 	.word	0x200000e8

0000165c <advance_pointer>:
    165c:	b580      	push	{r7, lr}
    165e:	b082      	sub	sp, #8
    1660:	af00      	add	r7, sp, #0
    1662:	6078      	str	r0, [r7, #4]
    1664:	687b      	ldr	r3, [r7, #4]
    1666:	7c1b      	ldrb	r3, [r3, #16]
    1668:	2b00      	cmp	r3, #0
    166a:	d00b      	beq.n	1684 <advance_pointer+0x28>
    166c:	687b      	ldr	r3, [r7, #4]
    166e:	689b      	ldr	r3, [r3, #8]
    1670:	1c5a      	adds	r2, r3, #1
    1672:	687b      	ldr	r3, [r7, #4]
    1674:	68d9      	ldr	r1, [r3, #12]
    1676:	4b10      	ldr	r3, [pc, #64]	; (16b8 <advance_pointer+0x5c>)
    1678:	0010      	movs	r0, r2
    167a:	4798      	blx	r3
    167c:	000b      	movs	r3, r1
    167e:	001a      	movs	r2, r3
    1680:	687b      	ldr	r3, [r7, #4]
    1682:	609a      	str	r2, [r3, #8]
    1684:	687b      	ldr	r3, [r7, #4]
    1686:	685b      	ldr	r3, [r3, #4]
    1688:	1c5a      	adds	r2, r3, #1
    168a:	687b      	ldr	r3, [r7, #4]
    168c:	68d9      	ldr	r1, [r3, #12]
    168e:	4b0a      	ldr	r3, [pc, #40]	; (16b8 <advance_pointer+0x5c>)
    1690:	0010      	movs	r0, r2
    1692:	4798      	blx	r3
    1694:	000b      	movs	r3, r1
    1696:	001a      	movs	r2, r3
    1698:	687b      	ldr	r3, [r7, #4]
    169a:	605a      	str	r2, [r3, #4]
    169c:	687b      	ldr	r3, [r7, #4]
    169e:	685a      	ldr	r2, [r3, #4]
    16a0:	687b      	ldr	r3, [r7, #4]
    16a2:	689b      	ldr	r3, [r3, #8]
    16a4:	1ad3      	subs	r3, r2, r3
    16a6:	425a      	negs	r2, r3
    16a8:	4153      	adcs	r3, r2
    16aa:	b2da      	uxtb	r2, r3
    16ac:	687b      	ldr	r3, [r7, #4]
    16ae:	741a      	strb	r2, [r3, #16]
    16b0:	46c0      	nop			; (mov r8, r8)
    16b2:	46bd      	mov	sp, r7
    16b4:	b002      	add	sp, #8
    16b6:	bd80      	pop	{r7, pc}
    16b8:	000040f5 	.word	0x000040f5

000016bc <retreat_pointer>:
    16bc:	b580      	push	{r7, lr}
    16be:	b082      	sub	sp, #8
    16c0:	af00      	add	r7, sp, #0
    16c2:	6078      	str	r0, [r7, #4]
    16c4:	687b      	ldr	r3, [r7, #4]
    16c6:	2200      	movs	r2, #0
    16c8:	741a      	strb	r2, [r3, #16]
    16ca:	687b      	ldr	r3, [r7, #4]
    16cc:	689b      	ldr	r3, [r3, #8]
    16ce:	1c5a      	adds	r2, r3, #1
    16d0:	687b      	ldr	r3, [r7, #4]
    16d2:	68d9      	ldr	r1, [r3, #12]
    16d4:	4b05      	ldr	r3, [pc, #20]	; (16ec <retreat_pointer+0x30>)
    16d6:	0010      	movs	r0, r2
    16d8:	4798      	blx	r3
    16da:	000b      	movs	r3, r1
    16dc:	001a      	movs	r2, r3
    16de:	687b      	ldr	r3, [r7, #4]
    16e0:	609a      	str	r2, [r3, #8]
    16e2:	46c0      	nop			; (mov r8, r8)
    16e4:	46bd      	mov	sp, r7
    16e6:	b002      	add	sp, #8
    16e8:	bd80      	pop	{r7, pc}
    16ea:	46c0      	nop			; (mov r8, r8)
    16ec:	000040f5 	.word	0x000040f5

000016f0 <circular_buf_init>:
    16f0:	b580      	push	{r7, lr}
    16f2:	b084      	sub	sp, #16
    16f4:	af00      	add	r7, sp, #0
    16f6:	6078      	str	r0, [r7, #4]
    16f8:	6039      	str	r1, [r7, #0]
    16fa:	2014      	movs	r0, #20
    16fc:	4b09      	ldr	r3, [pc, #36]	; (1724 <circular_buf_init+0x34>)
    16fe:	4798      	blx	r3
    1700:	0003      	movs	r3, r0
    1702:	60fb      	str	r3, [r7, #12]
    1704:	68fb      	ldr	r3, [r7, #12]
    1706:	687a      	ldr	r2, [r7, #4]
    1708:	601a      	str	r2, [r3, #0]
    170a:	68fb      	ldr	r3, [r7, #12]
    170c:	683a      	ldr	r2, [r7, #0]
    170e:	60da      	str	r2, [r3, #12]
    1710:	68fb      	ldr	r3, [r7, #12]
    1712:	0018      	movs	r0, r3
    1714:	4b04      	ldr	r3, [pc, #16]	; (1728 <circular_buf_init+0x38>)
    1716:	4798      	blx	r3
    1718:	68fb      	ldr	r3, [r7, #12]
    171a:	0018      	movs	r0, r3
    171c:	46bd      	mov	sp, r7
    171e:	b004      	add	sp, #16
    1720:	bd80      	pop	{r7, pc}
    1722:	46c0      	nop			; (mov r8, r8)
    1724:	0000419d 	.word	0x0000419d
    1728:	0000172d 	.word	0x0000172d

0000172c <circular_buf_reset>:
    172c:	b580      	push	{r7, lr}
    172e:	b082      	sub	sp, #8
    1730:	af00      	add	r7, sp, #0
    1732:	6078      	str	r0, [r7, #4]
    1734:	687b      	ldr	r3, [r7, #4]
    1736:	2200      	movs	r2, #0
    1738:	605a      	str	r2, [r3, #4]
    173a:	687b      	ldr	r3, [r7, #4]
    173c:	2200      	movs	r2, #0
    173e:	609a      	str	r2, [r3, #8]
    1740:	687b      	ldr	r3, [r7, #4]
    1742:	2200      	movs	r2, #0
    1744:	741a      	strb	r2, [r3, #16]
    1746:	46c0      	nop			; (mov r8, r8)
    1748:	46bd      	mov	sp, r7
    174a:	b002      	add	sp, #8
    174c:	bd80      	pop	{r7, pc}
	...

00001750 <circular_buf_put>:
    1750:	b580      	push	{r7, lr}
    1752:	b082      	sub	sp, #8
    1754:	af00      	add	r7, sp, #0
    1756:	6078      	str	r0, [r7, #4]
    1758:	000a      	movs	r2, r1
    175a:	1cfb      	adds	r3, r7, #3
    175c:	701a      	strb	r2, [r3, #0]
    175e:	687b      	ldr	r3, [r7, #4]
    1760:	681a      	ldr	r2, [r3, #0]
    1762:	687b      	ldr	r3, [r7, #4]
    1764:	685b      	ldr	r3, [r3, #4]
    1766:	18d3      	adds	r3, r2, r3
    1768:	1cfa      	adds	r2, r7, #3
    176a:	7812      	ldrb	r2, [r2, #0]
    176c:	701a      	strb	r2, [r3, #0]
    176e:	687b      	ldr	r3, [r7, #4]
    1770:	0018      	movs	r0, r3
    1772:	4b03      	ldr	r3, [pc, #12]	; (1780 <circular_buf_put+0x30>)
    1774:	4798      	blx	r3
    1776:	46c0      	nop			; (mov r8, r8)
    1778:	46bd      	mov	sp, r7
    177a:	b002      	add	sp, #8
    177c:	bd80      	pop	{r7, pc}
    177e:	46c0      	nop			; (mov r8, r8)
    1780:	0000165d 	.word	0x0000165d

00001784 <circular_buf_get>:
    1784:	b580      	push	{r7, lr}
    1786:	b084      	sub	sp, #16
    1788:	af00      	add	r7, sp, #0
    178a:	6078      	str	r0, [r7, #4]
    178c:	6039      	str	r1, [r7, #0]
    178e:	2301      	movs	r3, #1
    1790:	425b      	negs	r3, r3
    1792:	60fb      	str	r3, [r7, #12]
    1794:	687b      	ldr	r3, [r7, #4]
    1796:	0018      	movs	r0, r3
    1798:	4b0d      	ldr	r3, [pc, #52]	; (17d0 <circular_buf_get+0x4c>)
    179a:	4798      	blx	r3
    179c:	0003      	movs	r3, r0
    179e:	001a      	movs	r2, r3
    17a0:	2301      	movs	r3, #1
    17a2:	4053      	eors	r3, r2
    17a4:	b2db      	uxtb	r3, r3
    17a6:	2b00      	cmp	r3, #0
    17a8:	d00d      	beq.n	17c6 <circular_buf_get+0x42>
    17aa:	687b      	ldr	r3, [r7, #4]
    17ac:	681a      	ldr	r2, [r3, #0]
    17ae:	687b      	ldr	r3, [r7, #4]
    17b0:	689b      	ldr	r3, [r3, #8]
    17b2:	18d3      	adds	r3, r2, r3
    17b4:	781a      	ldrb	r2, [r3, #0]
    17b6:	683b      	ldr	r3, [r7, #0]
    17b8:	701a      	strb	r2, [r3, #0]
    17ba:	687b      	ldr	r3, [r7, #4]
    17bc:	0018      	movs	r0, r3
    17be:	4b05      	ldr	r3, [pc, #20]	; (17d4 <circular_buf_get+0x50>)
    17c0:	4798      	blx	r3
    17c2:	2300      	movs	r3, #0
    17c4:	60fb      	str	r3, [r7, #12]
    17c6:	68fb      	ldr	r3, [r7, #12]
    17c8:	0018      	movs	r0, r3
    17ca:	46bd      	mov	sp, r7
    17cc:	b004      	add	sp, #16
    17ce:	bd80      	pop	{r7, pc}
    17d0:	000017d9 	.word	0x000017d9
    17d4:	000016bd 	.word	0x000016bd

000017d8 <circular_buf_empty>:
    17d8:	b580      	push	{r7, lr}
    17da:	b082      	sub	sp, #8
    17dc:	af00      	add	r7, sp, #0
    17de:	6078      	str	r0, [r7, #4]
    17e0:	687b      	ldr	r3, [r7, #4]
    17e2:	7c1b      	ldrb	r3, [r3, #16]
    17e4:	2201      	movs	r2, #1
    17e6:	4053      	eors	r3, r2
    17e8:	b2db      	uxtb	r3, r3
    17ea:	2b00      	cmp	r3, #0
    17ec:	d007      	beq.n	17fe <circular_buf_empty+0x26>
    17ee:	687b      	ldr	r3, [r7, #4]
    17f0:	685a      	ldr	r2, [r3, #4]
    17f2:	687b      	ldr	r3, [r7, #4]
    17f4:	689b      	ldr	r3, [r3, #8]
    17f6:	429a      	cmp	r2, r3
    17f8:	d101      	bne.n	17fe <circular_buf_empty+0x26>
    17fa:	2301      	movs	r3, #1
    17fc:	e000      	b.n	1800 <circular_buf_empty+0x28>
    17fe:	2300      	movs	r3, #0
    1800:	1c1a      	adds	r2, r3, #0
    1802:	2301      	movs	r3, #1
    1804:	4013      	ands	r3, r2
    1806:	b2db      	uxtb	r3, r3
    1808:	0018      	movs	r0, r3
    180a:	46bd      	mov	sp, r7
    180c:	b002      	add	sp, #8
    180e:	bd80      	pop	{r7, pc}

00001810 <system_interrupt_enable>:
    1810:	b580      	push	{r7, lr}
    1812:	b082      	sub	sp, #8
    1814:	af00      	add	r7, sp, #0
    1816:	0002      	movs	r2, r0
    1818:	1dfb      	adds	r3, r7, #7
    181a:	701a      	strb	r2, [r3, #0]
    181c:	4b06      	ldr	r3, [pc, #24]	; (1838 <system_interrupt_enable+0x28>)
    181e:	1dfa      	adds	r2, r7, #7
    1820:	7812      	ldrb	r2, [r2, #0]
    1822:	0011      	movs	r1, r2
    1824:	221f      	movs	r2, #31
    1826:	400a      	ands	r2, r1
    1828:	2101      	movs	r1, #1
    182a:	4091      	lsls	r1, r2
    182c:	000a      	movs	r2, r1
    182e:	601a      	str	r2, [r3, #0]
    1830:	46c0      	nop			; (mov r8, r8)
    1832:	46bd      	mov	sp, r7
    1834:	b002      	add	sp, #8
    1836:	bd80      	pop	{r7, pc}
    1838:	e000e100 	.word	0xe000e100

0000183c <usart_is_syncing>:
    183c:	b580      	push	{r7, lr}
    183e:	b084      	sub	sp, #16
    1840:	af00      	add	r7, sp, #0
    1842:	6078      	str	r0, [r7, #4]
    1844:	687b      	ldr	r3, [r7, #4]
    1846:	681b      	ldr	r3, [r3, #0]
    1848:	60fb      	str	r3, [r7, #12]
    184a:	68fb      	ldr	r3, [r7, #12]
    184c:	69db      	ldr	r3, [r3, #28]
    184e:	1e5a      	subs	r2, r3, #1
    1850:	4193      	sbcs	r3, r2
    1852:	b2db      	uxtb	r3, r3
    1854:	0018      	movs	r0, r3
    1856:	46bd      	mov	sp, r7
    1858:	b004      	add	sp, #16
    185a:	bd80      	pop	{r7, pc}

0000185c <_usart_wait_for_sync>:
    185c:	b580      	push	{r7, lr}
    185e:	b082      	sub	sp, #8
    1860:	af00      	add	r7, sp, #0
    1862:	6078      	str	r0, [r7, #4]
    1864:	46c0      	nop			; (mov r8, r8)
    1866:	687b      	ldr	r3, [r7, #4]
    1868:	0018      	movs	r0, r3
    186a:	4b04      	ldr	r3, [pc, #16]	; (187c <_usart_wait_for_sync+0x20>)
    186c:	4798      	blx	r3
    186e:	1e03      	subs	r3, r0, #0
    1870:	d1f9      	bne.n	1866 <_usart_wait_for_sync+0xa>
    1872:	46c0      	nop			; (mov r8, r8)
    1874:	46bd      	mov	sp, r7
    1876:	b002      	add	sp, #8
    1878:	bd80      	pop	{r7, pc}
    187a:	46c0      	nop			; (mov r8, r8)
    187c:	0000183d 	.word	0x0000183d

00001880 <usart_get_config_defaults>:
    1880:	b580      	push	{r7, lr}
    1882:	b082      	sub	sp, #8
    1884:	af00      	add	r7, sp, #0
    1886:	6078      	str	r0, [r7, #4]
    1888:	687b      	ldr	r3, [r7, #4]
    188a:	2280      	movs	r2, #128	; 0x80
    188c:	05d2      	lsls	r2, r2, #23
    188e:	601a      	str	r2, [r3, #0]
    1890:	687b      	ldr	r3, [r7, #4]
    1892:	2200      	movs	r2, #0
    1894:	605a      	str	r2, [r3, #4]
    1896:	687b      	ldr	r3, [r7, #4]
    1898:	22ff      	movs	r2, #255	; 0xff
    189a:	811a      	strh	r2, [r3, #8]
    189c:	687b      	ldr	r3, [r7, #4]
    189e:	2200      	movs	r2, #0
    18a0:	729a      	strb	r2, [r3, #10]
    18a2:	687b      	ldr	r3, [r7, #4]
    18a4:	2200      	movs	r2, #0
    18a6:	72da      	strb	r2, [r3, #11]
    18a8:	687b      	ldr	r3, [r7, #4]
    18aa:	2296      	movs	r2, #150	; 0x96
    18ac:	0192      	lsls	r2, r2, #6
    18ae:	621a      	str	r2, [r3, #32]
    18b0:	687b      	ldr	r3, [r7, #4]
    18b2:	2224      	movs	r2, #36	; 0x24
    18b4:	2101      	movs	r1, #1
    18b6:	5499      	strb	r1, [r3, r2]
    18b8:	687b      	ldr	r3, [r7, #4]
    18ba:	2225      	movs	r2, #37	; 0x25
    18bc:	2101      	movs	r1, #1
    18be:	5499      	strb	r1, [r3, r2]
    18c0:	687b      	ldr	r3, [r7, #4]
    18c2:	2226      	movs	r2, #38	; 0x26
    18c4:	2100      	movs	r1, #0
    18c6:	5499      	strb	r1, [r3, r2]
    18c8:	687b      	ldr	r3, [r7, #4]
    18ca:	2227      	movs	r2, #39	; 0x27
    18cc:	2100      	movs	r1, #0
    18ce:	5499      	strb	r1, [r3, r2]
    18d0:	687b      	ldr	r3, [r7, #4]
    18d2:	2200      	movs	r2, #0
    18d4:	629a      	str	r2, [r3, #40]	; 0x28
    18d6:	687b      	ldr	r3, [r7, #4]
    18d8:	2288      	movs	r2, #136	; 0x88
    18da:	0352      	lsls	r2, r2, #13
    18dc:	60da      	str	r2, [r3, #12]
    18de:	687b      	ldr	r3, [r7, #4]
    18e0:	222c      	movs	r2, #44	; 0x2c
    18e2:	2100      	movs	r1, #0
    18e4:	5499      	strb	r1, [r3, r2]
    18e6:	687b      	ldr	r3, [r7, #4]
    18e8:	222d      	movs	r2, #45	; 0x2d
    18ea:	2100      	movs	r1, #0
    18ec:	5499      	strb	r1, [r3, r2]
    18ee:	687b      	ldr	r3, [r7, #4]
    18f0:	2200      	movs	r2, #0
    18f2:	631a      	str	r2, [r3, #48]	; 0x30
    18f4:	687b      	ldr	r3, [r7, #4]
    18f6:	2200      	movs	r2, #0
    18f8:	635a      	str	r2, [r3, #52]	; 0x34
    18fa:	687b      	ldr	r3, [r7, #4]
    18fc:	2200      	movs	r2, #0
    18fe:	639a      	str	r2, [r3, #56]	; 0x38
    1900:	687b      	ldr	r3, [r7, #4]
    1902:	2200      	movs	r2, #0
    1904:	63da      	str	r2, [r3, #60]	; 0x3c
    1906:	687b      	ldr	r3, [r7, #4]
    1908:	2200      	movs	r2, #0
    190a:	615a      	str	r2, [r3, #20]
    190c:	687b      	ldr	r3, [r7, #4]
    190e:	2200      	movs	r2, #0
    1910:	821a      	strh	r2, [r3, #16]
    1912:	687b      	ldr	r3, [r7, #4]
    1914:	2200      	movs	r2, #0
    1916:	76da      	strb	r2, [r3, #27]
    1918:	687b      	ldr	r3, [r7, #4]
    191a:	2200      	movs	r2, #0
    191c:	761a      	strb	r2, [r3, #24]
    191e:	687b      	ldr	r3, [r7, #4]
    1920:	2200      	movs	r2, #0
    1922:	771a      	strb	r2, [r3, #28]
    1924:	687b      	ldr	r3, [r7, #4]
    1926:	2200      	movs	r2, #0
    1928:	765a      	strb	r2, [r3, #25]
    192a:	687b      	ldr	r3, [r7, #4]
    192c:	2213      	movs	r2, #19
    192e:	769a      	strb	r2, [r3, #26]
    1930:	687b      	ldr	r3, [r7, #4]
    1932:	2200      	movs	r2, #0
    1934:	775a      	strb	r2, [r3, #29]
    1936:	46c0      	nop			; (mov r8, r8)
    1938:	46bd      	mov	sp, r7
    193a:	b002      	add	sp, #8
    193c:	bd80      	pop	{r7, pc}
	...

00001940 <usart_enable>:
    1940:	b580      	push	{r7, lr}
    1942:	b084      	sub	sp, #16
    1944:	af00      	add	r7, sp, #0
    1946:	6078      	str	r0, [r7, #4]
    1948:	687b      	ldr	r3, [r7, #4]
    194a:	681b      	ldr	r3, [r3, #0]
    194c:	60fb      	str	r3, [r7, #12]
    194e:	687b      	ldr	r3, [r7, #4]
    1950:	681b      	ldr	r3, [r3, #0]
    1952:	0018      	movs	r0, r3
    1954:	4b09      	ldr	r3, [pc, #36]	; (197c <usart_enable+0x3c>)
    1956:	4798      	blx	r3
    1958:	0003      	movs	r3, r0
    195a:	0018      	movs	r0, r3
    195c:	4b08      	ldr	r3, [pc, #32]	; (1980 <usart_enable+0x40>)
    195e:	4798      	blx	r3
    1960:	687b      	ldr	r3, [r7, #4]
    1962:	0018      	movs	r0, r3
    1964:	4b07      	ldr	r3, [pc, #28]	; (1984 <usart_enable+0x44>)
    1966:	4798      	blx	r3
    1968:	68fb      	ldr	r3, [r7, #12]
    196a:	681b      	ldr	r3, [r3, #0]
    196c:	2202      	movs	r2, #2
    196e:	431a      	orrs	r2, r3
    1970:	68fb      	ldr	r3, [r7, #12]
    1972:	601a      	str	r2, [r3, #0]
    1974:	46c0      	nop			; (mov r8, r8)
    1976:	46bd      	mov	sp, r7
    1978:	b004      	add	sp, #16
    197a:	bd80      	pop	{r7, pc}
    197c:	00002865 	.word	0x00002865
    1980:	00001811 	.word	0x00001811
    1984:	0000185d 	.word	0x0000185d

00001988 <usart_enable_callback>:
    1988:	b580      	push	{r7, lr}
    198a:	b082      	sub	sp, #8
    198c:	af00      	add	r7, sp, #0
    198e:	6078      	str	r0, [r7, #4]
    1990:	000a      	movs	r2, r1
    1992:	1cfb      	adds	r3, r7, #3
    1994:	701a      	strb	r2, [r3, #0]
    1996:	687b      	ldr	r3, [r7, #4]
    1998:	2231      	movs	r2, #49	; 0x31
    199a:	5c9b      	ldrb	r3, [r3, r2]
    199c:	b25a      	sxtb	r2, r3
    199e:	1cfb      	adds	r3, r7, #3
    19a0:	781b      	ldrb	r3, [r3, #0]
    19a2:	2101      	movs	r1, #1
    19a4:	4099      	lsls	r1, r3
    19a6:	000b      	movs	r3, r1
    19a8:	b25b      	sxtb	r3, r3
    19aa:	4313      	orrs	r3, r2
    19ac:	b25b      	sxtb	r3, r3
    19ae:	b2d9      	uxtb	r1, r3
    19b0:	687b      	ldr	r3, [r7, #4]
    19b2:	2231      	movs	r2, #49	; 0x31
    19b4:	5499      	strb	r1, [r3, r2]
    19b6:	46c0      	nop			; (mov r8, r8)
    19b8:	46bd      	mov	sp, r7
    19ba:	b002      	add	sp, #8
    19bc:	bd80      	pop	{r7, pc}
	...

000019c0 <InitializeSerialConsole>:
    19c0:	b580      	push	{r7, lr}
    19c2:	af00      	add	r7, sp, #0
    19c4:	2380      	movs	r3, #128	; 0x80
    19c6:	005a      	lsls	r2, r3, #1
    19c8:	4b0f      	ldr	r3, [pc, #60]	; (1a08 <InitializeSerialConsole+0x48>)
    19ca:	0011      	movs	r1, r2
    19cc:	0018      	movs	r0, r3
    19ce:	4b0f      	ldr	r3, [pc, #60]	; (1a0c <InitializeSerialConsole+0x4c>)
    19d0:	4798      	blx	r3
    19d2:	0002      	movs	r2, r0
    19d4:	4b0e      	ldr	r3, [pc, #56]	; (1a10 <InitializeSerialConsole+0x50>)
    19d6:	601a      	str	r2, [r3, #0]
    19d8:	2380      	movs	r3, #128	; 0x80
    19da:	005a      	lsls	r2, r3, #1
    19dc:	4b0d      	ldr	r3, [pc, #52]	; (1a14 <InitializeSerialConsole+0x54>)
    19de:	0011      	movs	r1, r2
    19e0:	0018      	movs	r0, r3
    19e2:	4b0a      	ldr	r3, [pc, #40]	; (1a0c <InitializeSerialConsole+0x4c>)
    19e4:	4798      	blx	r3
    19e6:	0002      	movs	r2, r0
    19e8:	4b0b      	ldr	r3, [pc, #44]	; (1a18 <InitializeSerialConsole+0x58>)
    19ea:	601a      	str	r2, [r3, #0]
    19ec:	4b0b      	ldr	r3, [pc, #44]	; (1a1c <InitializeSerialConsole+0x5c>)
    19ee:	4798      	blx	r3
    19f0:	4b0b      	ldr	r3, [pc, #44]	; (1a20 <InitializeSerialConsole+0x60>)
    19f2:	4798      	blx	r3
    19f4:	490b      	ldr	r1, [pc, #44]	; (1a24 <InitializeSerialConsole+0x64>)
    19f6:	4b0c      	ldr	r3, [pc, #48]	; (1a28 <InitializeSerialConsole+0x68>)
    19f8:	2201      	movs	r2, #1
    19fa:	0018      	movs	r0, r3
    19fc:	4b0b      	ldr	r3, [pc, #44]	; (1a2c <InitializeSerialConsole+0x6c>)
    19fe:	4798      	blx	r3
    1a00:	46c0      	nop			; (mov r8, r8)
    1a02:	46bd      	mov	sp, r7
    1a04:	bd80      	pop	{r7, pc}
    1a06:	46c0      	nop			; (mov r8, r8)
    1a08:	20000230 	.word	0x20000230
    1a0c:	000016f1 	.word	0x000016f1
    1a10:	20000128 	.word	0x20000128
    1a14:	20000130 	.word	0x20000130
    1a18:	20000334 	.word	0x20000334
    1a1c:	00001ae9 	.word	0x00001ae9
    1a20:	00001b61 	.word	0x00001b61
    1a24:	2000012c 	.word	0x2000012c
    1a28:	200000f4 	.word	0x200000f4
    1a2c:	0000245d 	.word	0x0000245d

00001a30 <SerialConsoleWriteString>:
    1a30:	b580      	push	{r7, lr}
    1a32:	b084      	sub	sp, #16
    1a34:	af00      	add	r7, sp, #0
    1a36:	6078      	str	r0, [r7, #4]
    1a38:	687b      	ldr	r3, [r7, #4]
    1a3a:	2b00      	cmp	r3, #0
    1a3c:	d023      	beq.n	1a86 <SerialConsoleWriteString+0x56>
    1a3e:	2300      	movs	r3, #0
    1a40:	60fb      	str	r3, [r7, #12]
    1a42:	e00b      	b.n	1a5c <SerialConsoleWriteString+0x2c>
    1a44:	4b12      	ldr	r3, [pc, #72]	; (1a90 <SerialConsoleWriteString+0x60>)
    1a46:	6818      	ldr	r0, [r3, #0]
    1a48:	687a      	ldr	r2, [r7, #4]
    1a4a:	68fb      	ldr	r3, [r7, #12]
    1a4c:	18d3      	adds	r3, r2, r3
    1a4e:	781b      	ldrb	r3, [r3, #0]
    1a50:	0019      	movs	r1, r3
    1a52:	4b10      	ldr	r3, [pc, #64]	; (1a94 <SerialConsoleWriteString+0x64>)
    1a54:	4798      	blx	r3
    1a56:	68fb      	ldr	r3, [r7, #12]
    1a58:	3301      	adds	r3, #1
    1a5a:	60fb      	str	r3, [r7, #12]
    1a5c:	687b      	ldr	r3, [r7, #4]
    1a5e:	0018      	movs	r0, r3
    1a60:	4b0d      	ldr	r3, [pc, #52]	; (1a98 <SerialConsoleWriteString+0x68>)
    1a62:	4798      	blx	r3
    1a64:	0002      	movs	r2, r0
    1a66:	68fb      	ldr	r3, [r7, #12]
    1a68:	429a      	cmp	r2, r3
    1a6a:	d8eb      	bhi.n	1a44 <SerialConsoleWriteString+0x14>
    1a6c:	4b08      	ldr	r3, [pc, #32]	; (1a90 <SerialConsoleWriteString+0x60>)
    1a6e:	681b      	ldr	r3, [r3, #0]
    1a70:	4a0a      	ldr	r2, [pc, #40]	; (1a9c <SerialConsoleWriteString+0x6c>)
    1a72:	0011      	movs	r1, r2
    1a74:	0018      	movs	r0, r3
    1a76:	4b0a      	ldr	r3, [pc, #40]	; (1aa0 <SerialConsoleWriteString+0x70>)
    1a78:	4798      	blx	r3
    1a7a:	4908      	ldr	r1, [pc, #32]	; (1a9c <SerialConsoleWriteString+0x6c>)
    1a7c:	4b09      	ldr	r3, [pc, #36]	; (1aa4 <SerialConsoleWriteString+0x74>)
    1a7e:	2201      	movs	r2, #1
    1a80:	0018      	movs	r0, r3
    1a82:	4b09      	ldr	r3, [pc, #36]	; (1aa8 <SerialConsoleWriteString+0x78>)
    1a84:	4798      	blx	r3
    1a86:	46c0      	nop			; (mov r8, r8)
    1a88:	46bd      	mov	sp, r7
    1a8a:	b004      	add	sp, #16
    1a8c:	bd80      	pop	{r7, pc}
    1a8e:	46c0      	nop			; (mov r8, r8)
    1a90:	20000334 	.word	0x20000334
    1a94:	00001751 	.word	0x00001751
    1a98:	00004291 	.word	0x00004291
    1a9c:	20000330 	.word	0x20000330
    1aa0:	00001785 	.word	0x00001785
    1aa4:	200000f4 	.word	0x200000f4
    1aa8:	00002415 	.word	0x00002415

00001aac <setLogLevel>:
    1aac:	b580      	push	{r7, lr}
    1aae:	b082      	sub	sp, #8
    1ab0:	af00      	add	r7, sp, #0
    1ab2:	0002      	movs	r2, r0
    1ab4:	1dfb      	adds	r3, r7, #7
    1ab6:	701a      	strb	r2, [r3, #0]
    1ab8:	4b03      	ldr	r3, [pc, #12]	; (1ac8 <setLogLevel+0x1c>)
    1aba:	1dfa      	adds	r2, r7, #7
    1abc:	7812      	ldrb	r2, [r2, #0]
    1abe:	701a      	strb	r2, [r3, #0]
    1ac0:	46c0      	nop			; (mov r8, r8)
    1ac2:	46bd      	mov	sp, r7
    1ac4:	b002      	add	sp, #8
    1ac6:	bd80      	pop	{r7, pc}
    1ac8:	2000008e 	.word	0x2000008e

00001acc <LogMessage>:
    1acc:	b40e      	push	{r1, r2, r3}
    1ace:	b580      	push	{r7, lr}
    1ad0:	b083      	sub	sp, #12
    1ad2:	af00      	add	r7, sp, #0
    1ad4:	0002      	movs	r2, r0
    1ad6:	1dfb      	adds	r3, r7, #7
    1ad8:	701a      	strb	r2, [r3, #0]
    1ada:	46c0      	nop			; (mov r8, r8)
    1adc:	46bd      	mov	sp, r7
    1ade:	b003      	add	sp, #12
    1ae0:	bc80      	pop	{r7}
    1ae2:	bc08      	pop	{r3}
    1ae4:	b003      	add	sp, #12
    1ae6:	4718      	bx	r3

00001ae8 <configure_usart>:
    1ae8:	b580      	push	{r7, lr}
    1aea:	b090      	sub	sp, #64	; 0x40
    1aec:	af00      	add	r7, sp, #0
    1aee:	003b      	movs	r3, r7
    1af0:	0018      	movs	r0, r3
    1af2:	4b14      	ldr	r3, [pc, #80]	; (1b44 <configure_usart+0x5c>)
    1af4:	4798      	blx	r3
    1af6:	003b      	movs	r3, r7
    1af8:	22e1      	movs	r2, #225	; 0xe1
    1afa:	0252      	lsls	r2, r2, #9
    1afc:	621a      	str	r2, [r3, #32]
    1afe:	003b      	movs	r3, r7
    1b00:	22c4      	movs	r2, #196	; 0xc4
    1b02:	0392      	lsls	r2, r2, #14
    1b04:	60da      	str	r2, [r3, #12]
    1b06:	003b      	movs	r3, r7
    1b08:	2201      	movs	r2, #1
    1b0a:	4252      	negs	r2, r2
    1b0c:	631a      	str	r2, [r3, #48]	; 0x30
    1b0e:	003b      	movs	r3, r7
    1b10:	2201      	movs	r2, #1
    1b12:	4252      	negs	r2, r2
    1b14:	635a      	str	r2, [r3, #52]	; 0x34
    1b16:	003b      	movs	r3, r7
    1b18:	4a0b      	ldr	r2, [pc, #44]	; (1b48 <configure_usart+0x60>)
    1b1a:	639a      	str	r2, [r3, #56]	; 0x38
    1b1c:	003b      	movs	r3, r7
    1b1e:	4a0b      	ldr	r2, [pc, #44]	; (1b4c <configure_usart+0x64>)
    1b20:	63da      	str	r2, [r3, #60]	; 0x3c
    1b22:	46c0      	nop			; (mov r8, r8)
    1b24:	003a      	movs	r2, r7
    1b26:	490a      	ldr	r1, [pc, #40]	; (1b50 <configure_usart+0x68>)
    1b28:	4b0a      	ldr	r3, [pc, #40]	; (1b54 <configure_usart+0x6c>)
    1b2a:	0018      	movs	r0, r3
    1b2c:	4b0a      	ldr	r3, [pc, #40]	; (1b58 <configure_usart+0x70>)
    1b2e:	4798      	blx	r3
    1b30:	1e03      	subs	r3, r0, #0
    1b32:	d1f7      	bne.n	1b24 <configure_usart+0x3c>
    1b34:	4b07      	ldr	r3, [pc, #28]	; (1b54 <configure_usart+0x6c>)
    1b36:	0018      	movs	r0, r3
    1b38:	4b08      	ldr	r3, [pc, #32]	; (1b5c <configure_usart+0x74>)
    1b3a:	4798      	blx	r3
    1b3c:	46c0      	nop			; (mov r8, r8)
    1b3e:	46bd      	mov	sp, r7
    1b40:	b010      	add	sp, #64	; 0x40
    1b42:	bd80      	pop	{r7, pc}
    1b44:	00001881 	.word	0x00001881
    1b48:	002a0003 	.word	0x002a0003
    1b4c:	002b0003 	.word	0x002b0003
    1b50:	42001800 	.word	0x42001800
    1b54:	200000f4 	.word	0x200000f4
    1b58:	00002019 	.word	0x00002019
    1b5c:	00001941 	.word	0x00001941

00001b60 <configure_usart_callbacks>:
    1b60:	b580      	push	{r7, lr}
    1b62:	af00      	add	r7, sp, #0
    1b64:	490c      	ldr	r1, [pc, #48]	; (1b98 <configure_usart_callbacks+0x38>)
    1b66:	4b0d      	ldr	r3, [pc, #52]	; (1b9c <configure_usart_callbacks+0x3c>)
    1b68:	2200      	movs	r2, #0
    1b6a:	0018      	movs	r0, r3
    1b6c:	4b0c      	ldr	r3, [pc, #48]	; (1ba0 <configure_usart_callbacks+0x40>)
    1b6e:	4798      	blx	r3
    1b70:	490c      	ldr	r1, [pc, #48]	; (1ba4 <configure_usart_callbacks+0x44>)
    1b72:	4b0a      	ldr	r3, [pc, #40]	; (1b9c <configure_usart_callbacks+0x3c>)
    1b74:	2201      	movs	r2, #1
    1b76:	0018      	movs	r0, r3
    1b78:	4b09      	ldr	r3, [pc, #36]	; (1ba0 <configure_usart_callbacks+0x40>)
    1b7a:	4798      	blx	r3
    1b7c:	4b07      	ldr	r3, [pc, #28]	; (1b9c <configure_usart_callbacks+0x3c>)
    1b7e:	2100      	movs	r1, #0
    1b80:	0018      	movs	r0, r3
    1b82:	4b09      	ldr	r3, [pc, #36]	; (1ba8 <configure_usart_callbacks+0x48>)
    1b84:	4798      	blx	r3
    1b86:	4b05      	ldr	r3, [pc, #20]	; (1b9c <configure_usart_callbacks+0x3c>)
    1b88:	2101      	movs	r1, #1
    1b8a:	0018      	movs	r0, r3
    1b8c:	4b06      	ldr	r3, [pc, #24]	; (1ba8 <configure_usart_callbacks+0x48>)
    1b8e:	4798      	blx	r3
    1b90:	46c0      	nop			; (mov r8, r8)
    1b92:	46bd      	mov	sp, r7
    1b94:	bd80      	pop	{r7, pc}
    1b96:	46c0      	nop			; (mov r8, r8)
    1b98:	00001bf9 	.word	0x00001bf9
    1b9c:	200000f4 	.word	0x200000f4
    1ba0:	000023cd 	.word	0x000023cd
    1ba4:	00001bad 	.word	0x00001bad
    1ba8:	00001989 	.word	0x00001989

00001bac <usart_read_callback>:
    1bac:	b580      	push	{r7, lr}
    1bae:	b082      	sub	sp, #8
    1bb0:	af00      	add	r7, sp, #0
    1bb2:	6078      	str	r0, [r7, #4]
    1bb4:	4b0a      	ldr	r3, [pc, #40]	; (1be0 <usart_read_callback+0x34>)
    1bb6:	0018      	movs	r0, r3
    1bb8:	4b0a      	ldr	r3, [pc, #40]	; (1be4 <usart_read_callback+0x38>)
    1bba:	4798      	blx	r3
    1bbc:	4b0a      	ldr	r3, [pc, #40]	; (1be8 <usart_read_callback+0x3c>)
    1bbe:	681a      	ldr	r2, [r3, #0]
    1bc0:	4b07      	ldr	r3, [pc, #28]	; (1be0 <usart_read_callback+0x34>)
    1bc2:	781b      	ldrb	r3, [r3, #0]
    1bc4:	0019      	movs	r1, r3
    1bc6:	0010      	movs	r0, r2
    1bc8:	4b08      	ldr	r3, [pc, #32]	; (1bec <usart_read_callback+0x40>)
    1bca:	4798      	blx	r3
    1bcc:	4904      	ldr	r1, [pc, #16]	; (1be0 <usart_read_callback+0x34>)
    1bce:	4b08      	ldr	r3, [pc, #32]	; (1bf0 <usart_read_callback+0x44>)
    1bd0:	2201      	movs	r2, #1
    1bd2:	0018      	movs	r0, r3
    1bd4:	4b07      	ldr	r3, [pc, #28]	; (1bf4 <usart_read_callback+0x48>)
    1bd6:	4798      	blx	r3
    1bd8:	46c0      	nop			; (mov r8, r8)
    1bda:	46bd      	mov	sp, r7
    1bdc:	b002      	add	sp, #8
    1bde:	bd80      	pop	{r7, pc}
    1be0:	2000012c 	.word	0x2000012c
    1be4:	00001a31 	.word	0x00001a31
    1be8:	20000128 	.word	0x20000128
    1bec:	00001751 	.word	0x00001751
    1bf0:	200000f4 	.word	0x200000f4
    1bf4:	0000245d 	.word	0x0000245d

00001bf8 <usart_write_callback>:
    1bf8:	b580      	push	{r7, lr}
    1bfa:	b082      	sub	sp, #8
    1bfc:	af00      	add	r7, sp, #0
    1bfe:	6078      	str	r0, [r7, #4]
    1c00:	4b09      	ldr	r3, [pc, #36]	; (1c28 <usart_write_callback+0x30>)
    1c02:	681b      	ldr	r3, [r3, #0]
    1c04:	4a09      	ldr	r2, [pc, #36]	; (1c2c <usart_write_callback+0x34>)
    1c06:	0011      	movs	r1, r2
    1c08:	0018      	movs	r0, r3
    1c0a:	4b09      	ldr	r3, [pc, #36]	; (1c30 <usart_write_callback+0x38>)
    1c0c:	4798      	blx	r3
    1c0e:	0003      	movs	r3, r0
    1c10:	3301      	adds	r3, #1
    1c12:	d005      	beq.n	1c20 <usart_write_callback+0x28>
    1c14:	4905      	ldr	r1, [pc, #20]	; (1c2c <usart_write_callback+0x34>)
    1c16:	4b07      	ldr	r3, [pc, #28]	; (1c34 <usart_write_callback+0x3c>)
    1c18:	2201      	movs	r2, #1
    1c1a:	0018      	movs	r0, r3
    1c1c:	4b06      	ldr	r3, [pc, #24]	; (1c38 <usart_write_callback+0x40>)
    1c1e:	4798      	blx	r3
    1c20:	46c0      	nop			; (mov r8, r8)
    1c22:	46bd      	mov	sp, r7
    1c24:	b002      	add	sp, #8
    1c26:	bd80      	pop	{r7, pc}
    1c28:	20000334 	.word	0x20000334
    1c2c:	20000330 	.word	0x20000330
    1c30:	00001785 	.word	0x00001785
    1c34:	200000f4 	.word	0x200000f4
    1c38:	00002415 	.word	0x00002415

00001c3c <system_gclk_chan_get_config_defaults>:
    1c3c:	b580      	push	{r7, lr}
    1c3e:	b082      	sub	sp, #8
    1c40:	af00      	add	r7, sp, #0
    1c42:	6078      	str	r0, [r7, #4]
    1c44:	687b      	ldr	r3, [r7, #4]
    1c46:	2200      	movs	r2, #0
    1c48:	701a      	strb	r2, [r3, #0]
    1c4a:	46c0      	nop			; (mov r8, r8)
    1c4c:	46bd      	mov	sp, r7
    1c4e:	b002      	add	sp, #8
    1c50:	bd80      	pop	{r7, pc}
	...

00001c54 <system_apb_clock_set_mask>:
    1c54:	b580      	push	{r7, lr}
    1c56:	b082      	sub	sp, #8
    1c58:	af00      	add	r7, sp, #0
    1c5a:	0002      	movs	r2, r0
    1c5c:	6039      	str	r1, [r7, #0]
    1c5e:	1dfb      	adds	r3, r7, #7
    1c60:	701a      	strb	r2, [r3, #0]
    1c62:	1dfb      	adds	r3, r7, #7
    1c64:	781b      	ldrb	r3, [r3, #0]
    1c66:	2b01      	cmp	r3, #1
    1c68:	d00a      	beq.n	1c80 <system_apb_clock_set_mask+0x2c>
    1c6a:	2b02      	cmp	r3, #2
    1c6c:	d00f      	beq.n	1c8e <system_apb_clock_set_mask+0x3a>
    1c6e:	2b00      	cmp	r3, #0
    1c70:	d114      	bne.n	1c9c <system_apb_clock_set_mask+0x48>
    1c72:	4b0e      	ldr	r3, [pc, #56]	; (1cac <system_apb_clock_set_mask+0x58>)
    1c74:	4a0d      	ldr	r2, [pc, #52]	; (1cac <system_apb_clock_set_mask+0x58>)
    1c76:	6991      	ldr	r1, [r2, #24]
    1c78:	683a      	ldr	r2, [r7, #0]
    1c7a:	430a      	orrs	r2, r1
    1c7c:	619a      	str	r2, [r3, #24]
    1c7e:	e00f      	b.n	1ca0 <system_apb_clock_set_mask+0x4c>
    1c80:	4b0a      	ldr	r3, [pc, #40]	; (1cac <system_apb_clock_set_mask+0x58>)
    1c82:	4a0a      	ldr	r2, [pc, #40]	; (1cac <system_apb_clock_set_mask+0x58>)
    1c84:	69d1      	ldr	r1, [r2, #28]
    1c86:	683a      	ldr	r2, [r7, #0]
    1c88:	430a      	orrs	r2, r1
    1c8a:	61da      	str	r2, [r3, #28]
    1c8c:	e008      	b.n	1ca0 <system_apb_clock_set_mask+0x4c>
    1c8e:	4b07      	ldr	r3, [pc, #28]	; (1cac <system_apb_clock_set_mask+0x58>)
    1c90:	4a06      	ldr	r2, [pc, #24]	; (1cac <system_apb_clock_set_mask+0x58>)
    1c92:	6a11      	ldr	r1, [r2, #32]
    1c94:	683a      	ldr	r2, [r7, #0]
    1c96:	430a      	orrs	r2, r1
    1c98:	621a      	str	r2, [r3, #32]
    1c9a:	e001      	b.n	1ca0 <system_apb_clock_set_mask+0x4c>
    1c9c:	2317      	movs	r3, #23
    1c9e:	e000      	b.n	1ca2 <system_apb_clock_set_mask+0x4e>
    1ca0:	2300      	movs	r3, #0
    1ca2:	0018      	movs	r0, r3
    1ca4:	46bd      	mov	sp, r7
    1ca6:	b002      	add	sp, #8
    1ca8:	bd80      	pop	{r7, pc}
    1caa:	46c0      	nop			; (mov r8, r8)
    1cac:	40000400 	.word	0x40000400

00001cb0 <system_pinmux_get_config_defaults>:
    1cb0:	b580      	push	{r7, lr}
    1cb2:	b082      	sub	sp, #8
    1cb4:	af00      	add	r7, sp, #0
    1cb6:	6078      	str	r0, [r7, #4]
    1cb8:	687b      	ldr	r3, [r7, #4]
    1cba:	2280      	movs	r2, #128	; 0x80
    1cbc:	701a      	strb	r2, [r3, #0]
    1cbe:	687b      	ldr	r3, [r7, #4]
    1cc0:	2200      	movs	r2, #0
    1cc2:	705a      	strb	r2, [r3, #1]
    1cc4:	687b      	ldr	r3, [r7, #4]
    1cc6:	2201      	movs	r2, #1
    1cc8:	709a      	strb	r2, [r3, #2]
    1cca:	687b      	ldr	r3, [r7, #4]
    1ccc:	2200      	movs	r2, #0
    1cce:	70da      	strb	r2, [r3, #3]
    1cd0:	46c0      	nop			; (mov r8, r8)
    1cd2:	46bd      	mov	sp, r7
    1cd4:	b002      	add	sp, #8
    1cd6:	bd80      	pop	{r7, pc}

00001cd8 <system_is_debugger_present>:
    1cd8:	b580      	push	{r7, lr}
    1cda:	af00      	add	r7, sp, #0
    1cdc:	4b05      	ldr	r3, [pc, #20]	; (1cf4 <system_is_debugger_present+0x1c>)
    1cde:	789b      	ldrb	r3, [r3, #2]
    1ce0:	b2db      	uxtb	r3, r3
    1ce2:	001a      	movs	r2, r3
    1ce4:	2302      	movs	r3, #2
    1ce6:	4013      	ands	r3, r2
    1ce8:	1e5a      	subs	r2, r3, #1
    1cea:	4193      	sbcs	r3, r2
    1cec:	b2db      	uxtb	r3, r3
    1cee:	0018      	movs	r0, r3
    1cf0:	46bd      	mov	sp, r7
    1cf2:	bd80      	pop	{r7, pc}
    1cf4:	41002000 	.word	0x41002000

00001cf8 <usart_is_syncing>:
    1cf8:	b580      	push	{r7, lr}
    1cfa:	b084      	sub	sp, #16
    1cfc:	af00      	add	r7, sp, #0
    1cfe:	6078      	str	r0, [r7, #4]
    1d00:	687b      	ldr	r3, [r7, #4]
    1d02:	681b      	ldr	r3, [r3, #0]
    1d04:	60fb      	str	r3, [r7, #12]
    1d06:	68fb      	ldr	r3, [r7, #12]
    1d08:	69db      	ldr	r3, [r3, #28]
    1d0a:	1e5a      	subs	r2, r3, #1
    1d0c:	4193      	sbcs	r3, r2
    1d0e:	b2db      	uxtb	r3, r3
    1d10:	0018      	movs	r0, r3
    1d12:	46bd      	mov	sp, r7
    1d14:	b004      	add	sp, #16
    1d16:	bd80      	pop	{r7, pc}

00001d18 <_usart_wait_for_sync>:
    1d18:	b580      	push	{r7, lr}
    1d1a:	b082      	sub	sp, #8
    1d1c:	af00      	add	r7, sp, #0
    1d1e:	6078      	str	r0, [r7, #4]
    1d20:	46c0      	nop			; (mov r8, r8)
    1d22:	687b      	ldr	r3, [r7, #4]
    1d24:	0018      	movs	r0, r3
    1d26:	4b04      	ldr	r3, [pc, #16]	; (1d38 <_usart_wait_for_sync+0x20>)
    1d28:	4798      	blx	r3
    1d2a:	1e03      	subs	r3, r0, #0
    1d2c:	d1f9      	bne.n	1d22 <_usart_wait_for_sync+0xa>
    1d2e:	46c0      	nop			; (mov r8, r8)
    1d30:	46bd      	mov	sp, r7
    1d32:	b002      	add	sp, #8
    1d34:	bd80      	pop	{r7, pc}
    1d36:	46c0      	nop			; (mov r8, r8)
    1d38:	00001cf9 	.word	0x00001cf9

00001d3c <_usart_set_config>:
    1d3c:	b5b0      	push	{r4, r5, r7, lr}
    1d3e:	b08c      	sub	sp, #48	; 0x30
    1d40:	af02      	add	r7, sp, #8
    1d42:	6078      	str	r0, [r7, #4]
    1d44:	6039      	str	r1, [r7, #0]
    1d46:	687b      	ldr	r3, [r7, #4]
    1d48:	681b      	ldr	r3, [r3, #0]
    1d4a:	61bb      	str	r3, [r7, #24]
    1d4c:	687b      	ldr	r3, [r7, #4]
    1d4e:	681b      	ldr	r3, [r3, #0]
    1d50:	0018      	movs	r0, r3
    1d52:	4bab      	ldr	r3, [pc, #684]	; (2000 <STACK_SIZE>)
    1d54:	4798      	blx	r3
    1d56:	0003      	movs	r3, r0
    1d58:	617b      	str	r3, [r7, #20]
    1d5a:	697b      	ldr	r3, [r7, #20]
    1d5c:	3314      	adds	r3, #20
    1d5e:	613b      	str	r3, [r7, #16]
    1d60:	2300      	movs	r3, #0
    1d62:	627b      	str	r3, [r7, #36]	; 0x24
    1d64:	2300      	movs	r3, #0
    1d66:	623b      	str	r3, [r7, #32]
    1d68:	230a      	movs	r3, #10
    1d6a:	18fb      	adds	r3, r7, r3
    1d6c:	2200      	movs	r2, #0
    1d6e:	801a      	strh	r2, [r3, #0]
    1d70:	231f      	movs	r3, #31
    1d72:	18fb      	adds	r3, r7, r3
    1d74:	2200      	movs	r2, #0
    1d76:	701a      	strb	r2, [r3, #0]
    1d78:	231e      	movs	r3, #30
    1d7a:	18fb      	adds	r3, r7, r3
    1d7c:	2210      	movs	r2, #16
    1d7e:	701a      	strb	r2, [r3, #0]
    1d80:	683b      	ldr	r3, [r7, #0]
    1d82:	8a1b      	ldrh	r3, [r3, #16]
    1d84:	2280      	movs	r2, #128	; 0x80
    1d86:	01d2      	lsls	r2, r2, #7
    1d88:	4293      	cmp	r3, r2
    1d8a:	d01c      	beq.n	1dc6 <_usart_set_config+0x8a>
    1d8c:	2280      	movs	r2, #128	; 0x80
    1d8e:	01d2      	lsls	r2, r2, #7
    1d90:	4293      	cmp	r3, r2
    1d92:	dc06      	bgt.n	1da2 <_usart_set_config+0x66>
    1d94:	2b00      	cmp	r3, #0
    1d96:	d00d      	beq.n	1db4 <_usart_set_config+0x78>
    1d98:	2280      	movs	r2, #128	; 0x80
    1d9a:	0192      	lsls	r2, r2, #6
    1d9c:	4293      	cmp	r3, r2
    1d9e:	d024      	beq.n	1dea <_usart_set_config+0xae>
    1da0:	e035      	b.n	1e0e <_usart_set_config+0xd2>
    1da2:	22c0      	movs	r2, #192	; 0xc0
    1da4:	01d2      	lsls	r2, r2, #7
    1da6:	4293      	cmp	r3, r2
    1da8:	d028      	beq.n	1dfc <_usart_set_config+0xc0>
    1daa:	2280      	movs	r2, #128	; 0x80
    1dac:	0212      	lsls	r2, r2, #8
    1dae:	4293      	cmp	r3, r2
    1db0:	d012      	beq.n	1dd8 <_usart_set_config+0x9c>
    1db2:	e02c      	b.n	1e0e <_usart_set_config+0xd2>
    1db4:	231f      	movs	r3, #31
    1db6:	18fb      	adds	r3, r7, r3
    1db8:	2200      	movs	r2, #0
    1dba:	701a      	strb	r2, [r3, #0]
    1dbc:	231e      	movs	r3, #30
    1dbe:	18fb      	adds	r3, r7, r3
    1dc0:	2210      	movs	r2, #16
    1dc2:	701a      	strb	r2, [r3, #0]
    1dc4:	e023      	b.n	1e0e <_usart_set_config+0xd2>
    1dc6:	231f      	movs	r3, #31
    1dc8:	18fb      	adds	r3, r7, r3
    1dca:	2200      	movs	r2, #0
    1dcc:	701a      	strb	r2, [r3, #0]
    1dce:	231e      	movs	r3, #30
    1dd0:	18fb      	adds	r3, r7, r3
    1dd2:	2208      	movs	r2, #8
    1dd4:	701a      	strb	r2, [r3, #0]
    1dd6:	e01a      	b.n	1e0e <_usart_set_config+0xd2>
    1dd8:	231f      	movs	r3, #31
    1dda:	18fb      	adds	r3, r7, r3
    1ddc:	2200      	movs	r2, #0
    1dde:	701a      	strb	r2, [r3, #0]
    1de0:	231e      	movs	r3, #30
    1de2:	18fb      	adds	r3, r7, r3
    1de4:	2203      	movs	r2, #3
    1de6:	701a      	strb	r2, [r3, #0]
    1de8:	e011      	b.n	1e0e <_usart_set_config+0xd2>
    1dea:	231f      	movs	r3, #31
    1dec:	18fb      	adds	r3, r7, r3
    1dee:	2201      	movs	r2, #1
    1df0:	701a      	strb	r2, [r3, #0]
    1df2:	231e      	movs	r3, #30
    1df4:	18fb      	adds	r3, r7, r3
    1df6:	2210      	movs	r2, #16
    1df8:	701a      	strb	r2, [r3, #0]
    1dfa:	e008      	b.n	1e0e <_usart_set_config+0xd2>
    1dfc:	231f      	movs	r3, #31
    1dfe:	18fb      	adds	r3, r7, r3
    1e00:	2201      	movs	r2, #1
    1e02:	701a      	strb	r2, [r3, #0]
    1e04:	231e      	movs	r3, #30
    1e06:	18fb      	adds	r3, r7, r3
    1e08:	2208      	movs	r2, #8
    1e0a:	701a      	strb	r2, [r3, #0]
    1e0c:	46c0      	nop			; (mov r8, r8)
    1e0e:	683b      	ldr	r3, [r7, #0]
    1e10:	681a      	ldr	r2, [r3, #0]
    1e12:	683b      	ldr	r3, [r7, #0]
    1e14:	68db      	ldr	r3, [r3, #12]
    1e16:	431a      	orrs	r2, r3
    1e18:	683b      	ldr	r3, [r7, #0]
    1e1a:	695b      	ldr	r3, [r3, #20]
    1e1c:	4313      	orrs	r3, r2
    1e1e:	683a      	ldr	r2, [r7, #0]
    1e20:	8a12      	ldrh	r2, [r2, #16]
    1e22:	4313      	orrs	r3, r2
    1e24:	683a      	ldr	r2, [r7, #0]
    1e26:	7e12      	ldrb	r2, [r2, #24]
    1e28:	0212      	lsls	r2, r2, #8
    1e2a:	4313      	orrs	r3, r2
    1e2c:	683a      	ldr	r2, [r7, #0]
    1e2e:	2126      	movs	r1, #38	; 0x26
    1e30:	5c52      	ldrb	r2, [r2, r1]
    1e32:	0752      	lsls	r2, r2, #29
    1e34:	4313      	orrs	r3, r2
    1e36:	627b      	str	r3, [r7, #36]	; 0x24
    1e38:	231d      	movs	r3, #29
    1e3a:	18fb      	adds	r3, r7, r3
    1e3c:	2200      	movs	r2, #0
    1e3e:	701a      	strb	r2, [r3, #0]
    1e40:	683b      	ldr	r3, [r7, #0]
    1e42:	685b      	ldr	r3, [r3, #4]
    1e44:	60fb      	str	r3, [r7, #12]
    1e46:	68fb      	ldr	r3, [r7, #12]
    1e48:	2b00      	cmp	r3, #0
    1e4a:	d01e      	beq.n	1e8a <_usart_set_config+0x14e>
    1e4c:	2280      	movs	r2, #128	; 0x80
    1e4e:	0552      	lsls	r2, r2, #21
    1e50:	4293      	cmp	r3, r2
    1e52:	d14f      	bne.n	1ef4 <_usart_set_config+0x1b8>
    1e54:	683b      	ldr	r3, [r7, #0]
    1e56:	2227      	movs	r2, #39	; 0x27
    1e58:	5c9b      	ldrb	r3, [r3, r2]
    1e5a:	2201      	movs	r2, #1
    1e5c:	4053      	eors	r3, r2
    1e5e:	b2db      	uxtb	r3, r3
    1e60:	2b00      	cmp	r3, #0
    1e62:	d046      	beq.n	1ef2 <_usart_set_config+0x1b6>
    1e64:	683b      	ldr	r3, [r7, #0]
    1e66:	6a1d      	ldr	r5, [r3, #32]
    1e68:	693b      	ldr	r3, [r7, #16]
    1e6a:	b2db      	uxtb	r3, r3
    1e6c:	0018      	movs	r0, r3
    1e6e:	4b65      	ldr	r3, [pc, #404]	; (2004 <STACK_SIZE+0x4>)
    1e70:	4798      	blx	r3
    1e72:	0001      	movs	r1, r0
    1e74:	231d      	movs	r3, #29
    1e76:	18fc      	adds	r4, r7, r3
    1e78:	230a      	movs	r3, #10
    1e7a:	18fb      	adds	r3, r7, r3
    1e7c:	001a      	movs	r2, r3
    1e7e:	0028      	movs	r0, r5
    1e80:	4b61      	ldr	r3, [pc, #388]	; (2008 <STACK_SIZE+0x8>)
    1e82:	4798      	blx	r3
    1e84:	0003      	movs	r3, r0
    1e86:	7023      	strb	r3, [r4, #0]
    1e88:	e033      	b.n	1ef2 <_usart_set_config+0x1b6>
    1e8a:	683b      	ldr	r3, [r7, #0]
    1e8c:	2227      	movs	r2, #39	; 0x27
    1e8e:	5c9b      	ldrb	r3, [r3, r2]
    1e90:	2b00      	cmp	r3, #0
    1e92:	d014      	beq.n	1ebe <_usart_set_config+0x182>
    1e94:	683b      	ldr	r3, [r7, #0]
    1e96:	6a18      	ldr	r0, [r3, #32]
    1e98:	683b      	ldr	r3, [r7, #0]
    1e9a:	6a99      	ldr	r1, [r3, #40]	; 0x28
    1e9c:	231d      	movs	r3, #29
    1e9e:	18fc      	adds	r4, r7, r3
    1ea0:	231f      	movs	r3, #31
    1ea2:	18fb      	adds	r3, r7, r3
    1ea4:	781d      	ldrb	r5, [r3, #0]
    1ea6:	230a      	movs	r3, #10
    1ea8:	18fa      	adds	r2, r7, r3
    1eaa:	231e      	movs	r3, #30
    1eac:	18fb      	adds	r3, r7, r3
    1eae:	781b      	ldrb	r3, [r3, #0]
    1eb0:	9300      	str	r3, [sp, #0]
    1eb2:	002b      	movs	r3, r5
    1eb4:	4d55      	ldr	r5, [pc, #340]	; (200c <STACK_SIZE+0xc>)
    1eb6:	47a8      	blx	r5
    1eb8:	0003      	movs	r3, r0
    1eba:	7023      	strb	r3, [r4, #0]
    1ebc:	e01a      	b.n	1ef4 <_usart_set_config+0x1b8>
    1ebe:	683b      	ldr	r3, [r7, #0]
    1ec0:	6a1d      	ldr	r5, [r3, #32]
    1ec2:	693b      	ldr	r3, [r7, #16]
    1ec4:	b2db      	uxtb	r3, r3
    1ec6:	0018      	movs	r0, r3
    1ec8:	4b4e      	ldr	r3, [pc, #312]	; (2004 <STACK_SIZE+0x4>)
    1eca:	4798      	blx	r3
    1ecc:	231d      	movs	r3, #29
    1ece:	18fc      	adds	r4, r7, r3
    1ed0:	231f      	movs	r3, #31
    1ed2:	18fb      	adds	r3, r7, r3
    1ed4:	7819      	ldrb	r1, [r3, #0]
    1ed6:	230a      	movs	r3, #10
    1ed8:	18fa      	adds	r2, r7, r3
    1eda:	231e      	movs	r3, #30
    1edc:	18fb      	adds	r3, r7, r3
    1ede:	781b      	ldrb	r3, [r3, #0]
    1ee0:	9300      	str	r3, [sp, #0]
    1ee2:	000b      	movs	r3, r1
    1ee4:	0001      	movs	r1, r0
    1ee6:	0028      	movs	r0, r5
    1ee8:	4d48      	ldr	r5, [pc, #288]	; (200c <STACK_SIZE+0xc>)
    1eea:	47a8      	blx	r5
    1eec:	0003      	movs	r3, r0
    1eee:	7023      	strb	r3, [r4, #0]
    1ef0:	e000      	b.n	1ef4 <_usart_set_config+0x1b8>
    1ef2:	46c0      	nop			; (mov r8, r8)
    1ef4:	231d      	movs	r3, #29
    1ef6:	18fb      	adds	r3, r7, r3
    1ef8:	781b      	ldrb	r3, [r3, #0]
    1efa:	2b00      	cmp	r3, #0
    1efc:	d003      	beq.n	1f06 <_usart_set_config+0x1ca>
    1efe:	231d      	movs	r3, #29
    1f00:	18fb      	adds	r3, r7, r3
    1f02:	781b      	ldrb	r3, [r3, #0]
    1f04:	e077      	b.n	1ff6 <_usart_set_config+0x2ba>
    1f06:	683b      	ldr	r3, [r7, #0]
    1f08:	7e5b      	ldrb	r3, [r3, #25]
    1f0a:	2b00      	cmp	r3, #0
    1f0c:	d003      	beq.n	1f16 <_usart_set_config+0x1da>
    1f0e:	683b      	ldr	r3, [r7, #0]
    1f10:	7e9a      	ldrb	r2, [r3, #26]
    1f12:	69bb      	ldr	r3, [r7, #24]
    1f14:	739a      	strb	r2, [r3, #14]
    1f16:	687b      	ldr	r3, [r7, #4]
    1f18:	0018      	movs	r0, r3
    1f1a:	4b3d      	ldr	r3, [pc, #244]	; (2010 <STACK_SIZE+0x10>)
    1f1c:	4798      	blx	r3
    1f1e:	230a      	movs	r3, #10
    1f20:	18fb      	adds	r3, r7, r3
    1f22:	881a      	ldrh	r2, [r3, #0]
    1f24:	69bb      	ldr	r3, [r7, #24]
    1f26:	819a      	strh	r2, [r3, #12]
    1f28:	6a7a      	ldr	r2, [r7, #36]	; 0x24
    1f2a:	68fb      	ldr	r3, [r7, #12]
    1f2c:	4313      	orrs	r3, r2
    1f2e:	627b      	str	r3, [r7, #36]	; 0x24
    1f30:	683b      	ldr	r3, [r7, #0]
    1f32:	2227      	movs	r2, #39	; 0x27
    1f34:	5c9b      	ldrb	r3, [r3, r2]
    1f36:	2201      	movs	r2, #1
    1f38:	4053      	eors	r3, r2
    1f3a:	b2db      	uxtb	r3, r3
    1f3c:	2b00      	cmp	r3, #0
    1f3e:	d003      	beq.n	1f48 <_usart_set_config+0x20c>
    1f40:	6a7b      	ldr	r3, [r7, #36]	; 0x24
    1f42:	2204      	movs	r2, #4
    1f44:	4313      	orrs	r3, r2
    1f46:	627b      	str	r3, [r7, #36]	; 0x24
    1f48:	683b      	ldr	r3, [r7, #0]
    1f4a:	7e5b      	ldrb	r3, [r3, #25]
    1f4c:	029a      	lsls	r2, r3, #10
    1f4e:	683b      	ldr	r3, [r7, #0]
    1f50:	7f1b      	ldrb	r3, [r3, #28]
    1f52:	025b      	lsls	r3, r3, #9
    1f54:	431a      	orrs	r2, r3
    1f56:	683b      	ldr	r3, [r7, #0]
    1f58:	7f5b      	ldrb	r3, [r3, #29]
    1f5a:	021b      	lsls	r3, r3, #8
    1f5c:	431a      	orrs	r2, r3
    1f5e:	683b      	ldr	r3, [r7, #0]
    1f60:	2124      	movs	r1, #36	; 0x24
    1f62:	5c5b      	ldrb	r3, [r3, r1]
    1f64:	045b      	lsls	r3, r3, #17
    1f66:	431a      	orrs	r2, r3
    1f68:	683b      	ldr	r3, [r7, #0]
    1f6a:	2125      	movs	r1, #37	; 0x25
    1f6c:	5c5b      	ldrb	r3, [r3, r1]
    1f6e:	041b      	lsls	r3, r3, #16
    1f70:	4313      	orrs	r3, r2
    1f72:	623b      	str	r3, [r7, #32]
    1f74:	683b      	ldr	r3, [r7, #0]
    1f76:	7a9b      	ldrb	r3, [r3, #10]
    1f78:	001a      	movs	r2, r3
    1f7a:	6a3b      	ldr	r3, [r7, #32]
    1f7c:	4313      	orrs	r3, r2
    1f7e:	623b      	str	r3, [r7, #32]
    1f80:	683b      	ldr	r3, [r7, #0]
    1f82:	7adb      	ldrb	r3, [r3, #11]
    1f84:	001a      	movs	r2, r3
    1f86:	6a3b      	ldr	r3, [r7, #32]
    1f88:	4313      	orrs	r3, r2
    1f8a:	623b      	str	r3, [r7, #32]
    1f8c:	683b      	ldr	r3, [r7, #0]
    1f8e:	891b      	ldrh	r3, [r3, #8]
    1f90:	2bff      	cmp	r3, #255	; 0xff
    1f92:	d00b      	beq.n	1fac <_usart_set_config+0x270>
    1f94:	6a7b      	ldr	r3, [r7, #36]	; 0x24
    1f96:	2280      	movs	r2, #128	; 0x80
    1f98:	0452      	lsls	r2, r2, #17
    1f9a:	4313      	orrs	r3, r2
    1f9c:	627b      	str	r3, [r7, #36]	; 0x24
    1f9e:	683b      	ldr	r3, [r7, #0]
    1fa0:	891b      	ldrh	r3, [r3, #8]
    1fa2:	001a      	movs	r2, r3
    1fa4:	6a3b      	ldr	r3, [r7, #32]
    1fa6:	4313      	orrs	r3, r2
    1fa8:	623b      	str	r3, [r7, #32]
    1faa:	e008      	b.n	1fbe <_usart_set_config+0x282>
    1fac:	683b      	ldr	r3, [r7, #0]
    1fae:	7edb      	ldrb	r3, [r3, #27]
    1fb0:	2b00      	cmp	r3, #0
    1fb2:	d004      	beq.n	1fbe <_usart_set_config+0x282>
    1fb4:	6a7b      	ldr	r3, [r7, #36]	; 0x24
    1fb6:	2280      	movs	r2, #128	; 0x80
    1fb8:	04d2      	lsls	r2, r2, #19
    1fba:	4313      	orrs	r3, r2
    1fbc:	627b      	str	r3, [r7, #36]	; 0x24
    1fbe:	683b      	ldr	r3, [r7, #0]
    1fc0:	222c      	movs	r2, #44	; 0x2c
    1fc2:	5c9b      	ldrb	r3, [r3, r2]
    1fc4:	2b00      	cmp	r3, #0
    1fc6:	d103      	bne.n	1fd0 <_usart_set_config+0x294>
    1fc8:	4b12      	ldr	r3, [pc, #72]	; (2014 <STACK_SIZE+0x14>)
    1fca:	4798      	blx	r3
    1fcc:	1e03      	subs	r3, r0, #0
    1fce:	d003      	beq.n	1fd8 <_usart_set_config+0x29c>
    1fd0:	6a7b      	ldr	r3, [r7, #36]	; 0x24
    1fd2:	2280      	movs	r2, #128	; 0x80
    1fd4:	4313      	orrs	r3, r2
    1fd6:	627b      	str	r3, [r7, #36]	; 0x24
    1fd8:	687b      	ldr	r3, [r7, #4]
    1fda:	0018      	movs	r0, r3
    1fdc:	4b0c      	ldr	r3, [pc, #48]	; (2010 <STACK_SIZE+0x10>)
    1fde:	4798      	blx	r3
    1fe0:	69bb      	ldr	r3, [r7, #24]
    1fe2:	6a3a      	ldr	r2, [r7, #32]
    1fe4:	605a      	str	r2, [r3, #4]
    1fe6:	687b      	ldr	r3, [r7, #4]
    1fe8:	0018      	movs	r0, r3
    1fea:	4b09      	ldr	r3, [pc, #36]	; (2010 <STACK_SIZE+0x10>)
    1fec:	4798      	blx	r3
    1fee:	69bb      	ldr	r3, [r7, #24]
    1ff0:	6a7a      	ldr	r2, [r7, #36]	; 0x24
    1ff2:	601a      	str	r2, [r3, #0]
    1ff4:	2300      	movs	r3, #0
    1ff6:	0018      	movs	r0, r3
    1ff8:	46bd      	mov	sp, r7
    1ffa:	b00a      	add	sp, #40	; 0x28
    1ffc:	bdb0      	pop	{r4, r5, r7, pc}
    1ffe:	46c0      	nop			; (mov r8, r8)
    2000:	00000961 	.word	0x00000961
    2004:	0000395d 	.word	0x0000395d
    2008:	000004db 	.word	0x000004db
    200c:	00000559 	.word	0x00000559
    2010:	00001d19 	.word	0x00001d19
    2014:	00001cd9 	.word	0x00001cd9

00002018 <usart_init>:
    2018:	b590      	push	{r4, r7, lr}
    201a:	b093      	sub	sp, #76	; 0x4c
    201c:	af00      	add	r7, sp, #0
    201e:	60f8      	str	r0, [r7, #12]
    2020:	60b9      	str	r1, [r7, #8]
    2022:	607a      	str	r2, [r7, #4]
    2024:	233b      	movs	r3, #59	; 0x3b
    2026:	18fb      	adds	r3, r7, r3
    2028:	2200      	movs	r2, #0
    202a:	701a      	strb	r2, [r3, #0]
    202c:	68fb      	ldr	r3, [r7, #12]
    202e:	68ba      	ldr	r2, [r7, #8]
    2030:	601a      	str	r2, [r3, #0]
    2032:	68fb      	ldr	r3, [r7, #12]
    2034:	681b      	ldr	r3, [r3, #0]
    2036:	637b      	str	r3, [r7, #52]	; 0x34
    2038:	68fb      	ldr	r3, [r7, #12]
    203a:	681b      	ldr	r3, [r3, #0]
    203c:	0018      	movs	r0, r3
    203e:	4b86      	ldr	r3, [pc, #536]	; (2258 <usart_init+0x240>)
    2040:	4798      	blx	r3
    2042:	0003      	movs	r3, r0
    2044:	633b      	str	r3, [r7, #48]	; 0x30
    2046:	6b3b      	ldr	r3, [r7, #48]	; 0x30
    2048:	3302      	adds	r3, #2
    204a:	62fb      	str	r3, [r7, #44]	; 0x2c
    204c:	6b3b      	ldr	r3, [r7, #48]	; 0x30
    204e:	3314      	adds	r3, #20
    2050:	62bb      	str	r3, [r7, #40]	; 0x28
    2052:	6b7b      	ldr	r3, [r7, #52]	; 0x34
    2054:	681b      	ldr	r3, [r3, #0]
    2056:	2201      	movs	r2, #1
    2058:	4013      	ands	r3, r2
    205a:	d001      	beq.n	2060 <usart_init+0x48>
    205c:	2305      	movs	r3, #5
    205e:	e0f6      	b.n	224e <usart_init+0x236>
    2060:	6b7b      	ldr	r3, [r7, #52]	; 0x34
    2062:	681b      	ldr	r3, [r3, #0]
    2064:	2202      	movs	r2, #2
    2066:	4013      	ands	r3, r2
    2068:	d001      	beq.n	206e <usart_init+0x56>
    206a:	231c      	movs	r3, #28
    206c:	e0ef      	b.n	224e <usart_init+0x236>
    206e:	2201      	movs	r2, #1
    2070:	6afb      	ldr	r3, [r7, #44]	; 0x2c
    2072:	409a      	lsls	r2, r3
    2074:	0013      	movs	r3, r2
    2076:	0019      	movs	r1, r3
    2078:	2002      	movs	r0, #2
    207a:	4b78      	ldr	r3, [pc, #480]	; (225c <usart_init+0x244>)
    207c:	4798      	blx	r3
    207e:	2324      	movs	r3, #36	; 0x24
    2080:	18fb      	adds	r3, r7, r3
    2082:	0018      	movs	r0, r3
    2084:	4b76      	ldr	r3, [pc, #472]	; (2260 <usart_init+0x248>)
    2086:	4798      	blx	r3
    2088:	687b      	ldr	r3, [r7, #4]
    208a:	222d      	movs	r2, #45	; 0x2d
    208c:	5c9a      	ldrb	r2, [r3, r2]
    208e:	2324      	movs	r3, #36	; 0x24
    2090:	18fb      	adds	r3, r7, r3
    2092:	701a      	strb	r2, [r3, #0]
    2094:	6abb      	ldr	r3, [r7, #40]	; 0x28
    2096:	b2db      	uxtb	r3, r3
    2098:	2224      	movs	r2, #36	; 0x24
    209a:	18ba      	adds	r2, r7, r2
    209c:	0011      	movs	r1, r2
    209e:	0018      	movs	r0, r3
    20a0:	4b70      	ldr	r3, [pc, #448]	; (2264 <usart_init+0x24c>)
    20a2:	4798      	blx	r3
    20a4:	6abb      	ldr	r3, [r7, #40]	; 0x28
    20a6:	b2db      	uxtb	r3, r3
    20a8:	0018      	movs	r0, r3
    20aa:	4b6f      	ldr	r3, [pc, #444]	; (2268 <usart_init+0x250>)
    20ac:	4798      	blx	r3
    20ae:	687b      	ldr	r3, [r7, #4]
    20b0:	222d      	movs	r2, #45	; 0x2d
    20b2:	5c9b      	ldrb	r3, [r3, r2]
    20b4:	2100      	movs	r1, #0
    20b6:	0018      	movs	r0, r3
    20b8:	4b6c      	ldr	r3, [pc, #432]	; (226c <usart_init+0x254>)
    20ba:	4798      	blx	r3
    20bc:	687b      	ldr	r3, [r7, #4]
    20be:	7ada      	ldrb	r2, [r3, #11]
    20c0:	68fb      	ldr	r3, [r7, #12]
    20c2:	715a      	strb	r2, [r3, #5]
    20c4:	687b      	ldr	r3, [r7, #4]
    20c6:	2224      	movs	r2, #36	; 0x24
    20c8:	5c9a      	ldrb	r2, [r3, r2]
    20ca:	68fb      	ldr	r3, [r7, #12]
    20cc:	719a      	strb	r2, [r3, #6]
    20ce:	687b      	ldr	r3, [r7, #4]
    20d0:	2225      	movs	r2, #37	; 0x25
    20d2:	5c9a      	ldrb	r2, [r3, r2]
    20d4:	68fb      	ldr	r3, [r7, #12]
    20d6:	71da      	strb	r2, [r3, #7]
    20d8:	687b      	ldr	r3, [r7, #4]
    20da:	7eda      	ldrb	r2, [r3, #27]
    20dc:	68fb      	ldr	r3, [r7, #12]
    20de:	721a      	strb	r2, [r3, #8]
    20e0:	687b      	ldr	r3, [r7, #4]
    20e2:	7f1a      	ldrb	r2, [r3, #28]
    20e4:	68fb      	ldr	r3, [r7, #12]
    20e6:	725a      	strb	r2, [r3, #9]
    20e8:	233b      	movs	r3, #59	; 0x3b
    20ea:	18fc      	adds	r4, r7, r3
    20ec:	687a      	ldr	r2, [r7, #4]
    20ee:	68fb      	ldr	r3, [r7, #12]
    20f0:	0011      	movs	r1, r2
    20f2:	0018      	movs	r0, r3
    20f4:	4b5e      	ldr	r3, [pc, #376]	; (2270 <usart_init+0x258>)
    20f6:	4798      	blx	r3
    20f8:	0003      	movs	r3, r0
    20fa:	7023      	strb	r3, [r4, #0]
    20fc:	233b      	movs	r3, #59	; 0x3b
    20fe:	18fb      	adds	r3, r7, r3
    2100:	781b      	ldrb	r3, [r3, #0]
    2102:	2b00      	cmp	r3, #0
    2104:	d003      	beq.n	210e <usart_init+0xf6>
    2106:	233b      	movs	r3, #59	; 0x3b
    2108:	18fb      	adds	r3, r7, r3
    210a:	781b      	ldrb	r3, [r3, #0]
    210c:	e09f      	b.n	224e <usart_init+0x236>
    210e:	2320      	movs	r3, #32
    2110:	18fb      	adds	r3, r7, r3
    2112:	0018      	movs	r0, r3
    2114:	4b57      	ldr	r3, [pc, #348]	; (2274 <usart_init+0x25c>)
    2116:	4798      	blx	r3
    2118:	2320      	movs	r3, #32
    211a:	18fb      	adds	r3, r7, r3
    211c:	2200      	movs	r2, #0
    211e:	705a      	strb	r2, [r3, #1]
    2120:	2320      	movs	r3, #32
    2122:	18fb      	adds	r3, r7, r3
    2124:	2200      	movs	r2, #0
    2126:	709a      	strb	r2, [r3, #2]
    2128:	687b      	ldr	r3, [r7, #4]
    212a:	6b1a      	ldr	r2, [r3, #48]	; 0x30
    212c:	2310      	movs	r3, #16
    212e:	18fb      	adds	r3, r7, r3
    2130:	601a      	str	r2, [r3, #0]
    2132:	687b      	ldr	r3, [r7, #4]
    2134:	6b5a      	ldr	r2, [r3, #52]	; 0x34
    2136:	2310      	movs	r3, #16
    2138:	18fb      	adds	r3, r7, r3
    213a:	605a      	str	r2, [r3, #4]
    213c:	687b      	ldr	r3, [r7, #4]
    213e:	6b9a      	ldr	r2, [r3, #56]	; 0x38
    2140:	2310      	movs	r3, #16
    2142:	18fb      	adds	r3, r7, r3
    2144:	609a      	str	r2, [r3, #8]
    2146:	687b      	ldr	r3, [r7, #4]
    2148:	6bda      	ldr	r2, [r3, #60]	; 0x3c
    214a:	2310      	movs	r3, #16
    214c:	18fb      	adds	r3, r7, r3
    214e:	60da      	str	r2, [r3, #12]
    2150:	2347      	movs	r3, #71	; 0x47
    2152:	18fb      	adds	r3, r7, r3
    2154:	2200      	movs	r2, #0
    2156:	701a      	strb	r2, [r3, #0]
    2158:	e02c      	b.n	21b4 <usart_init+0x19c>
    215a:	2347      	movs	r3, #71	; 0x47
    215c:	18fb      	adds	r3, r7, r3
    215e:	781a      	ldrb	r2, [r3, #0]
    2160:	2310      	movs	r3, #16
    2162:	18fb      	adds	r3, r7, r3
    2164:	0092      	lsls	r2, r2, #2
    2166:	58d3      	ldr	r3, [r2, r3]
    2168:	643b      	str	r3, [r7, #64]	; 0x40
    216a:	6c3b      	ldr	r3, [r7, #64]	; 0x40
    216c:	2b00      	cmp	r3, #0
    216e:	d109      	bne.n	2184 <usart_init+0x16c>
    2170:	2347      	movs	r3, #71	; 0x47
    2172:	18fb      	adds	r3, r7, r3
    2174:	781a      	ldrb	r2, [r3, #0]
    2176:	68bb      	ldr	r3, [r7, #8]
    2178:	0011      	movs	r1, r2
    217a:	0018      	movs	r0, r3
    217c:	4b3e      	ldr	r3, [pc, #248]	; (2278 <usart_init+0x260>)
    217e:	4798      	blx	r3
    2180:	0003      	movs	r3, r0
    2182:	643b      	str	r3, [r7, #64]	; 0x40
    2184:	6c3b      	ldr	r3, [r7, #64]	; 0x40
    2186:	3301      	adds	r3, #1
    2188:	d00d      	beq.n	21a6 <usart_init+0x18e>
    218a:	6c3b      	ldr	r3, [r7, #64]	; 0x40
    218c:	b2da      	uxtb	r2, r3
    218e:	2320      	movs	r3, #32
    2190:	18fb      	adds	r3, r7, r3
    2192:	701a      	strb	r2, [r3, #0]
    2194:	6c3b      	ldr	r3, [r7, #64]	; 0x40
    2196:	0c1b      	lsrs	r3, r3, #16
    2198:	b2db      	uxtb	r3, r3
    219a:	2220      	movs	r2, #32
    219c:	18ba      	adds	r2, r7, r2
    219e:	0011      	movs	r1, r2
    21a0:	0018      	movs	r0, r3
    21a2:	4b36      	ldr	r3, [pc, #216]	; (227c <usart_init+0x264>)
    21a4:	4798      	blx	r3
    21a6:	2347      	movs	r3, #71	; 0x47
    21a8:	18fb      	adds	r3, r7, r3
    21aa:	781a      	ldrb	r2, [r3, #0]
    21ac:	2347      	movs	r3, #71	; 0x47
    21ae:	18fb      	adds	r3, r7, r3
    21b0:	3201      	adds	r2, #1
    21b2:	701a      	strb	r2, [r3, #0]
    21b4:	2347      	movs	r3, #71	; 0x47
    21b6:	18fb      	adds	r3, r7, r3
    21b8:	781b      	ldrb	r3, [r3, #0]
    21ba:	2b03      	cmp	r3, #3
    21bc:	d9cd      	bls.n	215a <usart_init+0x142>
    21be:	2300      	movs	r3, #0
    21c0:	63fb      	str	r3, [r7, #60]	; 0x3c
    21c2:	e00a      	b.n	21da <usart_init+0x1c2>
    21c4:	68fa      	ldr	r2, [r7, #12]
    21c6:	6bfb      	ldr	r3, [r7, #60]	; 0x3c
    21c8:	3302      	adds	r3, #2
    21ca:	009b      	lsls	r3, r3, #2
    21cc:	18d3      	adds	r3, r2, r3
    21ce:	3304      	adds	r3, #4
    21d0:	2200      	movs	r2, #0
    21d2:	601a      	str	r2, [r3, #0]
    21d4:	6bfb      	ldr	r3, [r7, #60]	; 0x3c
    21d6:	3301      	adds	r3, #1
    21d8:	63fb      	str	r3, [r7, #60]	; 0x3c
    21da:	6bfb      	ldr	r3, [r7, #60]	; 0x3c
    21dc:	2b05      	cmp	r3, #5
    21de:	d9f1      	bls.n	21c4 <usart_init+0x1ac>
    21e0:	68fb      	ldr	r3, [r7, #12]
    21e2:	2200      	movs	r2, #0
    21e4:	629a      	str	r2, [r3, #40]	; 0x28
    21e6:	68fb      	ldr	r3, [r7, #12]
    21e8:	2200      	movs	r2, #0
    21ea:	625a      	str	r2, [r3, #36]	; 0x24
    21ec:	68fb      	ldr	r3, [r7, #12]
    21ee:	2200      	movs	r2, #0
    21f0:	85da      	strh	r2, [r3, #46]	; 0x2e
    21f2:	68fb      	ldr	r3, [r7, #12]
    21f4:	2200      	movs	r2, #0
    21f6:	859a      	strh	r2, [r3, #44]	; 0x2c
    21f8:	68fb      	ldr	r3, [r7, #12]
    21fa:	2230      	movs	r2, #48	; 0x30
    21fc:	2100      	movs	r1, #0
    21fe:	5499      	strb	r1, [r3, r2]
    2200:	68fb      	ldr	r3, [r7, #12]
    2202:	2231      	movs	r2, #49	; 0x31
    2204:	2100      	movs	r1, #0
    2206:	5499      	strb	r1, [r3, r2]
    2208:	68fb      	ldr	r3, [r7, #12]
    220a:	2232      	movs	r2, #50	; 0x32
    220c:	2100      	movs	r1, #0
    220e:	5499      	strb	r1, [r3, r2]
    2210:	68fb      	ldr	r3, [r7, #12]
    2212:	2233      	movs	r2, #51	; 0x33
    2214:	2100      	movs	r1, #0
    2216:	5499      	strb	r1, [r3, r2]
    2218:	68fb      	ldr	r3, [r7, #12]
    221a:	681b      	ldr	r3, [r3, #0]
    221c:	2227      	movs	r2, #39	; 0x27
    221e:	18bc      	adds	r4, r7, r2
    2220:	0018      	movs	r0, r3
    2222:	4b0d      	ldr	r3, [pc, #52]	; (2258 <usart_init+0x240>)
    2224:	4798      	blx	r3
    2226:	0003      	movs	r3, r0
    2228:	7023      	strb	r3, [r4, #0]
    222a:	4a15      	ldr	r2, [pc, #84]	; (2280 <usart_init+0x268>)
    222c:	2327      	movs	r3, #39	; 0x27
    222e:	18fb      	adds	r3, r7, r3
    2230:	781b      	ldrb	r3, [r3, #0]
    2232:	0011      	movs	r1, r2
    2234:	0018      	movs	r0, r3
    2236:	4b13      	ldr	r3, [pc, #76]	; (2284 <usart_init+0x26c>)
    2238:	4798      	blx	r3
    223a:	2327      	movs	r3, #39	; 0x27
    223c:	18fb      	adds	r3, r7, r3
    223e:	781a      	ldrb	r2, [r3, #0]
    2240:	4b11      	ldr	r3, [pc, #68]	; (2288 <usart_init+0x270>)
    2242:	0092      	lsls	r2, r2, #2
    2244:	68f9      	ldr	r1, [r7, #12]
    2246:	50d1      	str	r1, [r2, r3]
    2248:	233b      	movs	r3, #59	; 0x3b
    224a:	18fb      	adds	r3, r7, r3
    224c:	781b      	ldrb	r3, [r3, #0]
    224e:	0018      	movs	r0, r3
    2250:	46bd      	mov	sp, r7
    2252:	b013      	add	sp, #76	; 0x4c
    2254:	bd90      	pop	{r4, r7, pc}
    2256:	46c0      	nop			; (mov r8, r8)
    2258:	00000961 	.word	0x00000961
    225c:	00001c55 	.word	0x00001c55
    2260:	00001c3d 	.word	0x00001c3d
    2264:	00003839 	.word	0x00003839
    2268:	0000387d 	.word	0x0000387d
    226c:	00000719 	.word	0x00000719
    2270:	00001d3d 	.word	0x00001d3d
    2274:	00001cb1 	.word	0x00001cb1
    2278:	000007a5 	.word	0x000007a5
    227c:	00003b25 	.word	0x00003b25
    2280:	000024a5 	.word	0x000024a5
    2284:	000027f9 	.word	0x000027f9
    2288:	20000338 	.word	0x20000338

0000228c <system_interrupt_enter_critical_section>:
    228c:	b580      	push	{r7, lr}
    228e:	af00      	add	r7, sp, #0
    2290:	4b02      	ldr	r3, [pc, #8]	; (229c <system_interrupt_enter_critical_section+0x10>)
    2292:	4798      	blx	r3
    2294:	46c0      	nop			; (mov r8, r8)
    2296:	46bd      	mov	sp, r7
    2298:	bd80      	pop	{r7, pc}
    229a:	46c0      	nop			; (mov r8, r8)
    229c:	00002991 	.word	0x00002991

000022a0 <system_interrupt_leave_critical_section>:
    22a0:	b580      	push	{r7, lr}
    22a2:	af00      	add	r7, sp, #0
    22a4:	4b02      	ldr	r3, [pc, #8]	; (22b0 <system_interrupt_leave_critical_section+0x10>)
    22a6:	4798      	blx	r3
    22a8:	46c0      	nop			; (mov r8, r8)
    22aa:	46bd      	mov	sp, r7
    22ac:	bd80      	pop	{r7, pc}
    22ae:	46c0      	nop			; (mov r8, r8)
    22b0:	000029e5 	.word	0x000029e5

000022b4 <usart_is_syncing>:
    22b4:	b580      	push	{r7, lr}
    22b6:	b084      	sub	sp, #16
    22b8:	af00      	add	r7, sp, #0
    22ba:	6078      	str	r0, [r7, #4]
    22bc:	687b      	ldr	r3, [r7, #4]
    22be:	681b      	ldr	r3, [r3, #0]
    22c0:	60fb      	str	r3, [r7, #12]
    22c2:	68fb      	ldr	r3, [r7, #12]
    22c4:	69db      	ldr	r3, [r3, #28]
    22c6:	1e5a      	subs	r2, r3, #1
    22c8:	4193      	sbcs	r3, r2
    22ca:	b2db      	uxtb	r3, r3
    22cc:	0018      	movs	r0, r3
    22ce:	46bd      	mov	sp, r7
    22d0:	b004      	add	sp, #16
    22d2:	bd80      	pop	{r7, pc}

000022d4 <_usart_wait_for_sync>:
    22d4:	b580      	push	{r7, lr}
    22d6:	b082      	sub	sp, #8
    22d8:	af00      	add	r7, sp, #0
    22da:	6078      	str	r0, [r7, #4]
    22dc:	46c0      	nop			; (mov r8, r8)
    22de:	687b      	ldr	r3, [r7, #4]
    22e0:	0018      	movs	r0, r3
    22e2:	4b04      	ldr	r3, [pc, #16]	; (22f4 <_usart_wait_for_sync+0x20>)
    22e4:	4798      	blx	r3
    22e6:	1e03      	subs	r3, r0, #0
    22e8:	d1f9      	bne.n	22de <_usart_wait_for_sync+0xa>
    22ea:	46c0      	nop			; (mov r8, r8)
    22ec:	46bd      	mov	sp, r7
    22ee:	b002      	add	sp, #8
    22f0:	bd80      	pop	{r7, pc}
    22f2:	46c0      	nop			; (mov r8, r8)
    22f4:	000022b5 	.word	0x000022b5

000022f8 <_usart_write_buffer>:
    22f8:	b580      	push	{r7, lr}
    22fa:	b086      	sub	sp, #24
    22fc:	af00      	add	r7, sp, #0
    22fe:	60f8      	str	r0, [r7, #12]
    2300:	60b9      	str	r1, [r7, #8]
    2302:	1dbb      	adds	r3, r7, #6
    2304:	801a      	strh	r2, [r3, #0]
    2306:	68fb      	ldr	r3, [r7, #12]
    2308:	681b      	ldr	r3, [r3, #0]
    230a:	617b      	str	r3, [r7, #20]
    230c:	4b0f      	ldr	r3, [pc, #60]	; (234c <_usart_write_buffer+0x54>)
    230e:	4798      	blx	r3
    2310:	68fb      	ldr	r3, [r7, #12]
    2312:	8ddb      	ldrh	r3, [r3, #46]	; 0x2e
    2314:	b29b      	uxth	r3, r3
    2316:	2b00      	cmp	r3, #0
    2318:	d003      	beq.n	2322 <_usart_write_buffer+0x2a>
    231a:	4b0d      	ldr	r3, [pc, #52]	; (2350 <_usart_write_buffer+0x58>)
    231c:	4798      	blx	r3
    231e:	2305      	movs	r3, #5
    2320:	e010      	b.n	2344 <_usart_write_buffer+0x4c>
    2322:	68fb      	ldr	r3, [r7, #12]
    2324:	1dba      	adds	r2, r7, #6
    2326:	8812      	ldrh	r2, [r2, #0]
    2328:	85da      	strh	r2, [r3, #46]	; 0x2e
    232a:	4b09      	ldr	r3, [pc, #36]	; (2350 <_usart_write_buffer+0x58>)
    232c:	4798      	blx	r3
    232e:	68fb      	ldr	r3, [r7, #12]
    2330:	68ba      	ldr	r2, [r7, #8]
    2332:	629a      	str	r2, [r3, #40]	; 0x28
    2334:	68fb      	ldr	r3, [r7, #12]
    2336:	2233      	movs	r2, #51	; 0x33
    2338:	2105      	movs	r1, #5
    233a:	5499      	strb	r1, [r3, r2]
    233c:	697b      	ldr	r3, [r7, #20]
    233e:	2201      	movs	r2, #1
    2340:	759a      	strb	r2, [r3, #22]
    2342:	2300      	movs	r3, #0
    2344:	0018      	movs	r0, r3
    2346:	46bd      	mov	sp, r7
    2348:	b006      	add	sp, #24
    234a:	bd80      	pop	{r7, pc}
    234c:	0000228d 	.word	0x0000228d
    2350:	000022a1 	.word	0x000022a1

00002354 <_usart_read_buffer>:
    2354:	b580      	push	{r7, lr}
    2356:	b086      	sub	sp, #24
    2358:	af00      	add	r7, sp, #0
    235a:	60f8      	str	r0, [r7, #12]
    235c:	60b9      	str	r1, [r7, #8]
    235e:	1dbb      	adds	r3, r7, #6
    2360:	801a      	strh	r2, [r3, #0]
    2362:	68fb      	ldr	r3, [r7, #12]
    2364:	681b      	ldr	r3, [r3, #0]
    2366:	617b      	str	r3, [r7, #20]
    2368:	4b16      	ldr	r3, [pc, #88]	; (23c4 <_usart_read_buffer+0x70>)
    236a:	4798      	blx	r3
    236c:	68fb      	ldr	r3, [r7, #12]
    236e:	8d9b      	ldrh	r3, [r3, #44]	; 0x2c
    2370:	b29b      	uxth	r3, r3
    2372:	2b00      	cmp	r3, #0
    2374:	d003      	beq.n	237e <_usart_read_buffer+0x2a>
    2376:	4b14      	ldr	r3, [pc, #80]	; (23c8 <_usart_read_buffer+0x74>)
    2378:	4798      	blx	r3
    237a:	2305      	movs	r3, #5
    237c:	e01e      	b.n	23bc <_usart_read_buffer+0x68>
    237e:	68fb      	ldr	r3, [r7, #12]
    2380:	1dba      	adds	r2, r7, #6
    2382:	8812      	ldrh	r2, [r2, #0]
    2384:	859a      	strh	r2, [r3, #44]	; 0x2c
    2386:	4b10      	ldr	r3, [pc, #64]	; (23c8 <_usart_read_buffer+0x74>)
    2388:	4798      	blx	r3
    238a:	68fb      	ldr	r3, [r7, #12]
    238c:	68ba      	ldr	r2, [r7, #8]
    238e:	625a      	str	r2, [r3, #36]	; 0x24
    2390:	68fb      	ldr	r3, [r7, #12]
    2392:	2232      	movs	r2, #50	; 0x32
    2394:	2105      	movs	r1, #5
    2396:	5499      	strb	r1, [r3, r2]
    2398:	697b      	ldr	r3, [r7, #20]
    239a:	2204      	movs	r2, #4
    239c:	759a      	strb	r2, [r3, #22]
    239e:	68fb      	ldr	r3, [r7, #12]
    23a0:	7a1b      	ldrb	r3, [r3, #8]
    23a2:	2b00      	cmp	r3, #0
    23a4:	d002      	beq.n	23ac <_usart_read_buffer+0x58>
    23a6:	697b      	ldr	r3, [r7, #20]
    23a8:	2220      	movs	r2, #32
    23aa:	759a      	strb	r2, [r3, #22]
    23ac:	68fb      	ldr	r3, [r7, #12]
    23ae:	7a5b      	ldrb	r3, [r3, #9]
    23b0:	2b00      	cmp	r3, #0
    23b2:	d002      	beq.n	23ba <_usart_read_buffer+0x66>
    23b4:	697b      	ldr	r3, [r7, #20]
    23b6:	2208      	movs	r2, #8
    23b8:	759a      	strb	r2, [r3, #22]
    23ba:	2300      	movs	r3, #0
    23bc:	0018      	movs	r0, r3
    23be:	46bd      	mov	sp, r7
    23c0:	b006      	add	sp, #24
    23c2:	bd80      	pop	{r7, pc}
    23c4:	0000228d 	.word	0x0000228d
    23c8:	000022a1 	.word	0x000022a1

000023cc <usart_register_callback>:
    23cc:	b580      	push	{r7, lr}
    23ce:	b084      	sub	sp, #16
    23d0:	af00      	add	r7, sp, #0
    23d2:	60f8      	str	r0, [r7, #12]
    23d4:	60b9      	str	r1, [r7, #8]
    23d6:	1dfb      	adds	r3, r7, #7
    23d8:	701a      	strb	r2, [r3, #0]
    23da:	1dfb      	adds	r3, r7, #7
    23dc:	781b      	ldrb	r3, [r3, #0]
    23de:	68fa      	ldr	r2, [r7, #12]
    23e0:	3302      	adds	r3, #2
    23e2:	009b      	lsls	r3, r3, #2
    23e4:	18d3      	adds	r3, r2, r3
    23e6:	3304      	adds	r3, #4
    23e8:	68ba      	ldr	r2, [r7, #8]
    23ea:	601a      	str	r2, [r3, #0]
    23ec:	68fb      	ldr	r3, [r7, #12]
    23ee:	2230      	movs	r2, #48	; 0x30
    23f0:	5c9b      	ldrb	r3, [r3, r2]
    23f2:	b25a      	sxtb	r2, r3
    23f4:	1dfb      	adds	r3, r7, #7
    23f6:	781b      	ldrb	r3, [r3, #0]
    23f8:	2101      	movs	r1, #1
    23fa:	4099      	lsls	r1, r3
    23fc:	000b      	movs	r3, r1
    23fe:	b25b      	sxtb	r3, r3
    2400:	4313      	orrs	r3, r2
    2402:	b25b      	sxtb	r3, r3
    2404:	b2d9      	uxtb	r1, r3
    2406:	68fb      	ldr	r3, [r7, #12]
    2408:	2230      	movs	r2, #48	; 0x30
    240a:	5499      	strb	r1, [r3, r2]
    240c:	46c0      	nop			; (mov r8, r8)
    240e:	46bd      	mov	sp, r7
    2410:	b004      	add	sp, #16
    2412:	bd80      	pop	{r7, pc}

00002414 <usart_write_buffer_job>:
    2414:	b580      	push	{r7, lr}
    2416:	b084      	sub	sp, #16
    2418:	af00      	add	r7, sp, #0
    241a:	60f8      	str	r0, [r7, #12]
    241c:	60b9      	str	r1, [r7, #8]
    241e:	1dbb      	adds	r3, r7, #6
    2420:	801a      	strh	r2, [r3, #0]
    2422:	1dbb      	adds	r3, r7, #6
    2424:	881b      	ldrh	r3, [r3, #0]
    2426:	2b00      	cmp	r3, #0
    2428:	d101      	bne.n	242e <usart_write_buffer_job+0x1a>
    242a:	2317      	movs	r3, #23
    242c:	e010      	b.n	2450 <usart_write_buffer_job+0x3c>
    242e:	68fb      	ldr	r3, [r7, #12]
    2430:	79db      	ldrb	r3, [r3, #7]
    2432:	2201      	movs	r2, #1
    2434:	4053      	eors	r3, r2
    2436:	b2db      	uxtb	r3, r3
    2438:	2b00      	cmp	r3, #0
    243a:	d001      	beq.n	2440 <usart_write_buffer_job+0x2c>
    243c:	231c      	movs	r3, #28
    243e:	e007      	b.n	2450 <usart_write_buffer_job+0x3c>
    2440:	1dbb      	adds	r3, r7, #6
    2442:	881a      	ldrh	r2, [r3, #0]
    2444:	68b9      	ldr	r1, [r7, #8]
    2446:	68fb      	ldr	r3, [r7, #12]
    2448:	0018      	movs	r0, r3
    244a:	4b03      	ldr	r3, [pc, #12]	; (2458 <usart_write_buffer_job+0x44>)
    244c:	4798      	blx	r3
    244e:	0003      	movs	r3, r0
    2450:	0018      	movs	r0, r3
    2452:	46bd      	mov	sp, r7
    2454:	b004      	add	sp, #16
    2456:	bd80      	pop	{r7, pc}
    2458:	000022f9 	.word	0x000022f9

0000245c <usart_read_buffer_job>:
    245c:	b580      	push	{r7, lr}
    245e:	b084      	sub	sp, #16
    2460:	af00      	add	r7, sp, #0
    2462:	60f8      	str	r0, [r7, #12]
    2464:	60b9      	str	r1, [r7, #8]
    2466:	1dbb      	adds	r3, r7, #6
    2468:	801a      	strh	r2, [r3, #0]
    246a:	1dbb      	adds	r3, r7, #6
    246c:	881b      	ldrh	r3, [r3, #0]
    246e:	2b00      	cmp	r3, #0
    2470:	d101      	bne.n	2476 <usart_read_buffer_job+0x1a>
    2472:	2317      	movs	r3, #23
    2474:	e010      	b.n	2498 <usart_read_buffer_job+0x3c>
    2476:	68fb      	ldr	r3, [r7, #12]
    2478:	799b      	ldrb	r3, [r3, #6]
    247a:	2201      	movs	r2, #1
    247c:	4053      	eors	r3, r2
    247e:	b2db      	uxtb	r3, r3
    2480:	2b00      	cmp	r3, #0
    2482:	d001      	beq.n	2488 <usart_read_buffer_job+0x2c>
    2484:	231c      	movs	r3, #28
    2486:	e007      	b.n	2498 <usart_read_buffer_job+0x3c>
    2488:	1dbb      	adds	r3, r7, #6
    248a:	881a      	ldrh	r2, [r3, #0]
    248c:	68b9      	ldr	r1, [r7, #8]
    248e:	68fb      	ldr	r3, [r7, #12]
    2490:	0018      	movs	r0, r3
    2492:	4b03      	ldr	r3, [pc, #12]	; (24a0 <usart_read_buffer_job+0x44>)
    2494:	4798      	blx	r3
    2496:	0003      	movs	r3, r0
    2498:	0018      	movs	r0, r3
    249a:	46bd      	mov	sp, r7
    249c:	b004      	add	sp, #16
    249e:	bd80      	pop	{r7, pc}
    24a0:	00002355 	.word	0x00002355

000024a4 <_usart_interrupt_handler>:
    24a4:	b580      	push	{r7, lr}
    24a6:	b088      	sub	sp, #32
    24a8:	af00      	add	r7, sp, #0
    24aa:	0002      	movs	r2, r0
    24ac:	1dfb      	adds	r3, r7, #7
    24ae:	701a      	strb	r2, [r3, #0]
    24b0:	1dfb      	adds	r3, r7, #7
    24b2:	781a      	ldrb	r2, [r3, #0]
    24b4:	4ba3      	ldr	r3, [pc, #652]	; (2744 <_usart_interrupt_handler+0x2a0>)
    24b6:	0092      	lsls	r2, r2, #2
    24b8:	58d3      	ldr	r3, [r2, r3]
    24ba:	61bb      	str	r3, [r7, #24]
    24bc:	69bb      	ldr	r3, [r7, #24]
    24be:	681b      	ldr	r3, [r3, #0]
    24c0:	617b      	str	r3, [r7, #20]
    24c2:	69bb      	ldr	r3, [r7, #24]
    24c4:	0018      	movs	r0, r3
    24c6:	4ba0      	ldr	r3, [pc, #640]	; (2748 <_usart_interrupt_handler+0x2a4>)
    24c8:	4798      	blx	r3
    24ca:	697b      	ldr	r3, [r7, #20]
    24cc:	7e1b      	ldrb	r3, [r3, #24]
    24ce:	b2da      	uxtb	r2, r3
    24d0:	2312      	movs	r3, #18
    24d2:	18fb      	adds	r3, r7, r3
    24d4:	801a      	strh	r2, [r3, #0]
    24d6:	697b      	ldr	r3, [r7, #20]
    24d8:	7d9b      	ldrb	r3, [r3, #22]
    24da:	b2db      	uxtb	r3, r3
    24dc:	b29a      	uxth	r2, r3
    24de:	2312      	movs	r3, #18
    24e0:	18fb      	adds	r3, r7, r3
    24e2:	2112      	movs	r1, #18
    24e4:	1879      	adds	r1, r7, r1
    24e6:	8809      	ldrh	r1, [r1, #0]
    24e8:	400a      	ands	r2, r1
    24ea:	801a      	strh	r2, [r3, #0]
    24ec:	69bb      	ldr	r3, [r7, #24]
    24ee:	2230      	movs	r2, #48	; 0x30
    24f0:	5c9b      	ldrb	r3, [r3, r2]
    24f2:	69ba      	ldr	r2, [r7, #24]
    24f4:	2131      	movs	r1, #49	; 0x31
    24f6:	5c52      	ldrb	r2, [r2, r1]
    24f8:	4013      	ands	r3, r2
    24fa:	b2da      	uxtb	r2, r3
    24fc:	2310      	movs	r3, #16
    24fe:	18fb      	adds	r3, r7, r3
    2500:	801a      	strh	r2, [r3, #0]
    2502:	2312      	movs	r3, #18
    2504:	18fb      	adds	r3, r7, r3
    2506:	881b      	ldrh	r3, [r3, #0]
    2508:	2201      	movs	r2, #1
    250a:	4013      	ands	r3, r2
    250c:	d044      	beq.n	2598 <_usart_interrupt_handler+0xf4>
    250e:	69bb      	ldr	r3, [r7, #24]
    2510:	8ddb      	ldrh	r3, [r3, #46]	; 0x2e
    2512:	b29b      	uxth	r3, r3
    2514:	2b00      	cmp	r3, #0
    2516:	d03c      	beq.n	2592 <_usart_interrupt_handler+0xee>
    2518:	69bb      	ldr	r3, [r7, #24]
    251a:	6a9b      	ldr	r3, [r3, #40]	; 0x28
    251c:	781b      	ldrb	r3, [r3, #0]
    251e:	b2da      	uxtb	r2, r3
    2520:	231c      	movs	r3, #28
    2522:	18fb      	adds	r3, r7, r3
    2524:	801a      	strh	r2, [r3, #0]
    2526:	69bb      	ldr	r3, [r7, #24]
    2528:	6a9b      	ldr	r3, [r3, #40]	; 0x28
    252a:	1c5a      	adds	r2, r3, #1
    252c:	69bb      	ldr	r3, [r7, #24]
    252e:	629a      	str	r2, [r3, #40]	; 0x28
    2530:	69bb      	ldr	r3, [r7, #24]
    2532:	795b      	ldrb	r3, [r3, #5]
    2534:	2b01      	cmp	r3, #1
    2536:	d113      	bne.n	2560 <_usart_interrupt_handler+0xbc>
    2538:	69bb      	ldr	r3, [r7, #24]
    253a:	6a9b      	ldr	r3, [r3, #40]	; 0x28
    253c:	781b      	ldrb	r3, [r3, #0]
    253e:	b2db      	uxtb	r3, r3
    2540:	021b      	lsls	r3, r3, #8
    2542:	b21a      	sxth	r2, r3
    2544:	231c      	movs	r3, #28
    2546:	18fb      	adds	r3, r7, r3
    2548:	2100      	movs	r1, #0
    254a:	5e5b      	ldrsh	r3, [r3, r1]
    254c:	4313      	orrs	r3, r2
    254e:	b21a      	sxth	r2, r3
    2550:	231c      	movs	r3, #28
    2552:	18fb      	adds	r3, r7, r3
    2554:	801a      	strh	r2, [r3, #0]
    2556:	69bb      	ldr	r3, [r7, #24]
    2558:	6a9b      	ldr	r3, [r3, #40]	; 0x28
    255a:	1c5a      	adds	r2, r3, #1
    255c:	69bb      	ldr	r3, [r7, #24]
    255e:	629a      	str	r2, [r3, #40]	; 0x28
    2560:	231c      	movs	r3, #28
    2562:	18fb      	adds	r3, r7, r3
    2564:	881b      	ldrh	r3, [r3, #0]
    2566:	05db      	lsls	r3, r3, #23
    2568:	0ddb      	lsrs	r3, r3, #23
    256a:	b29a      	uxth	r2, r3
    256c:	697b      	ldr	r3, [r7, #20]
    256e:	851a      	strh	r2, [r3, #40]	; 0x28
    2570:	69bb      	ldr	r3, [r7, #24]
    2572:	8ddb      	ldrh	r3, [r3, #46]	; 0x2e
    2574:	b29b      	uxth	r3, r3
    2576:	3b01      	subs	r3, #1
    2578:	b29b      	uxth	r3, r3
    257a:	69ba      	ldr	r2, [r7, #24]
    257c:	1c19      	adds	r1, r3, #0
    257e:	85d1      	strh	r1, [r2, #46]	; 0x2e
    2580:	2b00      	cmp	r3, #0
    2582:	d109      	bne.n	2598 <_usart_interrupt_handler+0xf4>
    2584:	697b      	ldr	r3, [r7, #20]
    2586:	2201      	movs	r2, #1
    2588:	751a      	strb	r2, [r3, #20]
    258a:	697b      	ldr	r3, [r7, #20]
    258c:	2202      	movs	r2, #2
    258e:	759a      	strb	r2, [r3, #22]
    2590:	e002      	b.n	2598 <_usart_interrupt_handler+0xf4>
    2592:	697b      	ldr	r3, [r7, #20]
    2594:	2201      	movs	r2, #1
    2596:	751a      	strb	r2, [r3, #20]
    2598:	2312      	movs	r3, #18
    259a:	18fb      	adds	r3, r7, r3
    259c:	881b      	ldrh	r3, [r3, #0]
    259e:	2202      	movs	r2, #2
    25a0:	4013      	ands	r3, r2
    25a2:	d011      	beq.n	25c8 <_usart_interrupt_handler+0x124>
    25a4:	697b      	ldr	r3, [r7, #20]
    25a6:	2202      	movs	r2, #2
    25a8:	751a      	strb	r2, [r3, #20]
    25aa:	69bb      	ldr	r3, [r7, #24]
    25ac:	2233      	movs	r2, #51	; 0x33
    25ae:	2100      	movs	r1, #0
    25b0:	5499      	strb	r1, [r3, r2]
    25b2:	2310      	movs	r3, #16
    25b4:	18fb      	adds	r3, r7, r3
    25b6:	881b      	ldrh	r3, [r3, #0]
    25b8:	2201      	movs	r2, #1
    25ba:	4013      	ands	r3, r2
    25bc:	d004      	beq.n	25c8 <_usart_interrupt_handler+0x124>
    25be:	69bb      	ldr	r3, [r7, #24]
    25c0:	68db      	ldr	r3, [r3, #12]
    25c2:	69ba      	ldr	r2, [r7, #24]
    25c4:	0010      	movs	r0, r2
    25c6:	4798      	blx	r3
    25c8:	2312      	movs	r3, #18
    25ca:	18fb      	adds	r3, r7, r3
    25cc:	881b      	ldrh	r3, [r3, #0]
    25ce:	2204      	movs	r2, #4
    25d0:	4013      	ands	r3, r2
    25d2:	d100      	bne.n	25d6 <_usart_interrupt_handler+0x132>
    25d4:	e0bd      	b.n	2752 <_usart_interrupt_handler+0x2ae>
    25d6:	69bb      	ldr	r3, [r7, #24]
    25d8:	8d9b      	ldrh	r3, [r3, #44]	; 0x2c
    25da:	b29b      	uxth	r3, r3
    25dc:	2b00      	cmp	r3, #0
    25de:	d100      	bne.n	25e2 <_usart_interrupt_handler+0x13e>
    25e0:	e0b4      	b.n	274c <_usart_interrupt_handler+0x2a8>
    25e2:	697b      	ldr	r3, [r7, #20]
    25e4:	8b5b      	ldrh	r3, [r3, #26]
    25e6:	b29b      	uxth	r3, r3
    25e8:	b2da      	uxtb	r2, r3
    25ea:	231f      	movs	r3, #31
    25ec:	18fb      	adds	r3, r7, r3
    25ee:	213f      	movs	r1, #63	; 0x3f
    25f0:	400a      	ands	r2, r1
    25f2:	701a      	strb	r2, [r3, #0]
    25f4:	231f      	movs	r3, #31
    25f6:	18fb      	adds	r3, r7, r3
    25f8:	781b      	ldrb	r3, [r3, #0]
    25fa:	2208      	movs	r2, #8
    25fc:	4013      	ands	r3, r2
    25fe:	d007      	beq.n	2610 <_usart_interrupt_handler+0x16c>
    2600:	231f      	movs	r3, #31
    2602:	18fb      	adds	r3, r7, r3
    2604:	221f      	movs	r2, #31
    2606:	18ba      	adds	r2, r7, r2
    2608:	7812      	ldrb	r2, [r2, #0]
    260a:	2108      	movs	r1, #8
    260c:	438a      	bics	r2, r1
    260e:	701a      	strb	r2, [r3, #0]
    2610:	231f      	movs	r3, #31
    2612:	18fb      	adds	r3, r7, r3
    2614:	781b      	ldrb	r3, [r3, #0]
    2616:	2b00      	cmp	r3, #0
    2618:	d050      	beq.n	26bc <_usart_interrupt_handler+0x218>
    261a:	231f      	movs	r3, #31
    261c:	18fb      	adds	r3, r7, r3
    261e:	781b      	ldrb	r3, [r3, #0]
    2620:	2202      	movs	r2, #2
    2622:	4013      	ands	r3, r2
    2624:	d007      	beq.n	2636 <_usart_interrupt_handler+0x192>
    2626:	69bb      	ldr	r3, [r7, #24]
    2628:	2232      	movs	r2, #50	; 0x32
    262a:	211a      	movs	r1, #26
    262c:	5499      	strb	r1, [r3, r2]
    262e:	697b      	ldr	r3, [r7, #20]
    2630:	2202      	movs	r2, #2
    2632:	835a      	strh	r2, [r3, #26]
    2634:	e036      	b.n	26a4 <_usart_interrupt_handler+0x200>
    2636:	231f      	movs	r3, #31
    2638:	18fb      	adds	r3, r7, r3
    263a:	781b      	ldrb	r3, [r3, #0]
    263c:	2204      	movs	r2, #4
    263e:	4013      	ands	r3, r2
    2640:	d007      	beq.n	2652 <_usart_interrupt_handler+0x1ae>
    2642:	69bb      	ldr	r3, [r7, #24]
    2644:	2232      	movs	r2, #50	; 0x32
    2646:	211e      	movs	r1, #30
    2648:	5499      	strb	r1, [r3, r2]
    264a:	697b      	ldr	r3, [r7, #20]
    264c:	2204      	movs	r2, #4
    264e:	835a      	strh	r2, [r3, #26]
    2650:	e028      	b.n	26a4 <_usart_interrupt_handler+0x200>
    2652:	231f      	movs	r3, #31
    2654:	18fb      	adds	r3, r7, r3
    2656:	781b      	ldrb	r3, [r3, #0]
    2658:	2201      	movs	r2, #1
    265a:	4013      	ands	r3, r2
    265c:	d007      	beq.n	266e <_usart_interrupt_handler+0x1ca>
    265e:	69bb      	ldr	r3, [r7, #24]
    2660:	2232      	movs	r2, #50	; 0x32
    2662:	2113      	movs	r1, #19
    2664:	5499      	strb	r1, [r3, r2]
    2666:	697b      	ldr	r3, [r7, #20]
    2668:	2201      	movs	r2, #1
    266a:	835a      	strh	r2, [r3, #26]
    266c:	e01a      	b.n	26a4 <_usart_interrupt_handler+0x200>
    266e:	231f      	movs	r3, #31
    2670:	18fb      	adds	r3, r7, r3
    2672:	781b      	ldrb	r3, [r3, #0]
    2674:	2210      	movs	r2, #16
    2676:	4013      	ands	r3, r2
    2678:	d007      	beq.n	268a <_usart_interrupt_handler+0x1e6>
    267a:	69bb      	ldr	r3, [r7, #24]
    267c:	2232      	movs	r2, #50	; 0x32
    267e:	2142      	movs	r1, #66	; 0x42
    2680:	5499      	strb	r1, [r3, r2]
    2682:	697b      	ldr	r3, [r7, #20]
    2684:	2210      	movs	r2, #16
    2686:	835a      	strh	r2, [r3, #26]
    2688:	e00c      	b.n	26a4 <_usart_interrupt_handler+0x200>
    268a:	231f      	movs	r3, #31
    268c:	18fb      	adds	r3, r7, r3
    268e:	781b      	ldrb	r3, [r3, #0]
    2690:	2220      	movs	r2, #32
    2692:	4013      	ands	r3, r2
    2694:	d006      	beq.n	26a4 <_usart_interrupt_handler+0x200>
    2696:	69bb      	ldr	r3, [r7, #24]
    2698:	2232      	movs	r2, #50	; 0x32
    269a:	2141      	movs	r1, #65	; 0x41
    269c:	5499      	strb	r1, [r3, r2]
    269e:	697b      	ldr	r3, [r7, #20]
    26a0:	2220      	movs	r2, #32
    26a2:	835a      	strh	r2, [r3, #26]
    26a4:	2310      	movs	r3, #16
    26a6:	18fb      	adds	r3, r7, r3
    26a8:	881b      	ldrh	r3, [r3, #0]
    26aa:	2204      	movs	r2, #4
    26ac:	4013      	ands	r3, r2
    26ae:	d050      	beq.n	2752 <_usart_interrupt_handler+0x2ae>
    26b0:	69bb      	ldr	r3, [r7, #24]
    26b2:	695b      	ldr	r3, [r3, #20]
    26b4:	69ba      	ldr	r2, [r7, #24]
    26b6:	0010      	movs	r0, r2
    26b8:	4798      	blx	r3
    26ba:	e04a      	b.n	2752 <_usart_interrupt_handler+0x2ae>
    26bc:	697b      	ldr	r3, [r7, #20]
    26be:	8d1b      	ldrh	r3, [r3, #40]	; 0x28
    26c0:	b29a      	uxth	r2, r3
    26c2:	230e      	movs	r3, #14
    26c4:	18fb      	adds	r3, r7, r3
    26c6:	05d2      	lsls	r2, r2, #23
    26c8:	0dd2      	lsrs	r2, r2, #23
    26ca:	801a      	strh	r2, [r3, #0]
    26cc:	69bb      	ldr	r3, [r7, #24]
    26ce:	6a5b      	ldr	r3, [r3, #36]	; 0x24
    26d0:	220e      	movs	r2, #14
    26d2:	18ba      	adds	r2, r7, r2
    26d4:	8812      	ldrh	r2, [r2, #0]
    26d6:	b2d2      	uxtb	r2, r2
    26d8:	701a      	strb	r2, [r3, #0]
    26da:	69bb      	ldr	r3, [r7, #24]
    26dc:	6a5b      	ldr	r3, [r3, #36]	; 0x24
    26de:	1c5a      	adds	r2, r3, #1
    26e0:	69bb      	ldr	r3, [r7, #24]
    26e2:	625a      	str	r2, [r3, #36]	; 0x24
    26e4:	69bb      	ldr	r3, [r7, #24]
    26e6:	795b      	ldrb	r3, [r3, #5]
    26e8:	2b01      	cmp	r3, #1
    26ea:	d10d      	bne.n	2708 <_usart_interrupt_handler+0x264>
    26ec:	69bb      	ldr	r3, [r7, #24]
    26ee:	6a5b      	ldr	r3, [r3, #36]	; 0x24
    26f0:	220e      	movs	r2, #14
    26f2:	18ba      	adds	r2, r7, r2
    26f4:	8812      	ldrh	r2, [r2, #0]
    26f6:	0a12      	lsrs	r2, r2, #8
    26f8:	b292      	uxth	r2, r2
    26fa:	b2d2      	uxtb	r2, r2
    26fc:	701a      	strb	r2, [r3, #0]
    26fe:	69bb      	ldr	r3, [r7, #24]
    2700:	6a5b      	ldr	r3, [r3, #36]	; 0x24
    2702:	1c5a      	adds	r2, r3, #1
    2704:	69bb      	ldr	r3, [r7, #24]
    2706:	625a      	str	r2, [r3, #36]	; 0x24
    2708:	69bb      	ldr	r3, [r7, #24]
    270a:	8d9b      	ldrh	r3, [r3, #44]	; 0x2c
    270c:	b29b      	uxth	r3, r3
    270e:	3b01      	subs	r3, #1
    2710:	b29b      	uxth	r3, r3
    2712:	69ba      	ldr	r2, [r7, #24]
    2714:	1c19      	adds	r1, r3, #0
    2716:	8591      	strh	r1, [r2, #44]	; 0x2c
    2718:	2b00      	cmp	r3, #0
    271a:	d11a      	bne.n	2752 <_usart_interrupt_handler+0x2ae>
    271c:	697b      	ldr	r3, [r7, #20]
    271e:	2204      	movs	r2, #4
    2720:	751a      	strb	r2, [r3, #20]
    2722:	69bb      	ldr	r3, [r7, #24]
    2724:	2232      	movs	r2, #50	; 0x32
    2726:	2100      	movs	r1, #0
    2728:	5499      	strb	r1, [r3, r2]
    272a:	2310      	movs	r3, #16
    272c:	18fb      	adds	r3, r7, r3
    272e:	881b      	ldrh	r3, [r3, #0]
    2730:	2202      	movs	r2, #2
    2732:	4013      	ands	r3, r2
    2734:	d00d      	beq.n	2752 <_usart_interrupt_handler+0x2ae>
    2736:	69bb      	ldr	r3, [r7, #24]
    2738:	691b      	ldr	r3, [r3, #16]
    273a:	69ba      	ldr	r2, [r7, #24]
    273c:	0010      	movs	r0, r2
    273e:	4798      	blx	r3
    2740:	e007      	b.n	2752 <_usart_interrupt_handler+0x2ae>
    2742:	46c0      	nop			; (mov r8, r8)
    2744:	20000338 	.word	0x20000338
    2748:	000022d5 	.word	0x000022d5
    274c:	697b      	ldr	r3, [r7, #20]
    274e:	2204      	movs	r2, #4
    2750:	751a      	strb	r2, [r3, #20]
    2752:	2312      	movs	r3, #18
    2754:	18fb      	adds	r3, r7, r3
    2756:	881b      	ldrh	r3, [r3, #0]
    2758:	2210      	movs	r2, #16
    275a:	4013      	ands	r3, r2
    275c:	d010      	beq.n	2780 <_usart_interrupt_handler+0x2dc>
    275e:	697b      	ldr	r3, [r7, #20]
    2760:	2210      	movs	r2, #16
    2762:	751a      	strb	r2, [r3, #20]
    2764:	697b      	ldr	r3, [r7, #20]
    2766:	2210      	movs	r2, #16
    2768:	761a      	strb	r2, [r3, #24]
    276a:	2310      	movs	r3, #16
    276c:	18fb      	adds	r3, r7, r3
    276e:	881b      	ldrh	r3, [r3, #0]
    2770:	2210      	movs	r2, #16
    2772:	4013      	ands	r3, r2
    2774:	d004      	beq.n	2780 <_usart_interrupt_handler+0x2dc>
    2776:	69bb      	ldr	r3, [r7, #24]
    2778:	69db      	ldr	r3, [r3, #28]
    277a:	69ba      	ldr	r2, [r7, #24]
    277c:	0010      	movs	r0, r2
    277e:	4798      	blx	r3
    2780:	2312      	movs	r3, #18
    2782:	18fb      	adds	r3, r7, r3
    2784:	881b      	ldrh	r3, [r3, #0]
    2786:	2220      	movs	r2, #32
    2788:	4013      	ands	r3, r2
    278a:	d010      	beq.n	27ae <_usart_interrupt_handler+0x30a>
    278c:	697b      	ldr	r3, [r7, #20]
    278e:	2220      	movs	r2, #32
    2790:	751a      	strb	r2, [r3, #20]
    2792:	697b      	ldr	r3, [r7, #20]
    2794:	2220      	movs	r2, #32
    2796:	761a      	strb	r2, [r3, #24]
    2798:	2310      	movs	r3, #16
    279a:	18fb      	adds	r3, r7, r3
    279c:	881b      	ldrh	r3, [r3, #0]
    279e:	2208      	movs	r2, #8
    27a0:	4013      	ands	r3, r2
    27a2:	d004      	beq.n	27ae <_usart_interrupt_handler+0x30a>
    27a4:	69bb      	ldr	r3, [r7, #24]
    27a6:	699b      	ldr	r3, [r3, #24]
    27a8:	69ba      	ldr	r2, [r7, #24]
    27aa:	0010      	movs	r0, r2
    27ac:	4798      	blx	r3
    27ae:	2312      	movs	r3, #18
    27b0:	18fb      	adds	r3, r7, r3
    27b2:	881b      	ldrh	r3, [r3, #0]
    27b4:	2208      	movs	r2, #8
    27b6:	4013      	ands	r3, r2
    27b8:	d010      	beq.n	27dc <_usart_interrupt_handler+0x338>
    27ba:	697b      	ldr	r3, [r7, #20]
    27bc:	2208      	movs	r2, #8
    27be:	751a      	strb	r2, [r3, #20]
    27c0:	697b      	ldr	r3, [r7, #20]
    27c2:	2208      	movs	r2, #8
    27c4:	761a      	strb	r2, [r3, #24]
    27c6:	2310      	movs	r3, #16
    27c8:	18fb      	adds	r3, r7, r3
    27ca:	881b      	ldrh	r3, [r3, #0]
    27cc:	2220      	movs	r2, #32
    27ce:	4013      	ands	r3, r2
    27d0:	d004      	beq.n	27dc <_usart_interrupt_handler+0x338>
    27d2:	69bb      	ldr	r3, [r7, #24]
    27d4:	6a1b      	ldr	r3, [r3, #32]
    27d6:	69ba      	ldr	r2, [r7, #24]
    27d8:	0010      	movs	r0, r2
    27da:	4798      	blx	r3
    27dc:	46c0      	nop			; (mov r8, r8)
    27de:	46bd      	mov	sp, r7
    27e0:	b008      	add	sp, #32
    27e2:	bd80      	pop	{r7, pc}

000027e4 <_sercom_default_handler>:
    27e4:	b580      	push	{r7, lr}
    27e6:	b082      	sub	sp, #8
    27e8:	af00      	add	r7, sp, #0
    27ea:	0002      	movs	r2, r0
    27ec:	1dfb      	adds	r3, r7, #7
    27ee:	701a      	strb	r2, [r3, #0]
    27f0:	46c0      	nop			; (mov r8, r8)
    27f2:	46bd      	mov	sp, r7
    27f4:	b002      	add	sp, #8
    27f6:	bd80      	pop	{r7, pc}

000027f8 <_sercom_set_handler>:
    27f8:	b580      	push	{r7, lr}
    27fa:	b084      	sub	sp, #16
    27fc:	af00      	add	r7, sp, #0
    27fe:	0002      	movs	r2, r0
    2800:	6039      	str	r1, [r7, #0]
    2802:	1dfb      	adds	r3, r7, #7
    2804:	701a      	strb	r2, [r3, #0]
    2806:	4b13      	ldr	r3, [pc, #76]	; (2854 <_sercom_set_handler+0x5c>)
    2808:	781b      	ldrb	r3, [r3, #0]
    280a:	2201      	movs	r2, #1
    280c:	4053      	eors	r3, r2
    280e:	b2db      	uxtb	r3, r3
    2810:	2b00      	cmp	r3, #0
    2812:	d015      	beq.n	2840 <_sercom_set_handler+0x48>
    2814:	2300      	movs	r3, #0
    2816:	60fb      	str	r3, [r7, #12]
    2818:	e00c      	b.n	2834 <_sercom_set_handler+0x3c>
    281a:	4b0f      	ldr	r3, [pc, #60]	; (2858 <_sercom_set_handler+0x60>)
    281c:	68fa      	ldr	r2, [r7, #12]
    281e:	0092      	lsls	r2, r2, #2
    2820:	490e      	ldr	r1, [pc, #56]	; (285c <_sercom_set_handler+0x64>)
    2822:	50d1      	str	r1, [r2, r3]
    2824:	4b0e      	ldr	r3, [pc, #56]	; (2860 <_sercom_set_handler+0x68>)
    2826:	68fa      	ldr	r2, [r7, #12]
    2828:	0092      	lsls	r2, r2, #2
    282a:	2100      	movs	r1, #0
    282c:	50d1      	str	r1, [r2, r3]
    282e:	68fb      	ldr	r3, [r7, #12]
    2830:	3301      	adds	r3, #1
    2832:	60fb      	str	r3, [r7, #12]
    2834:	68fb      	ldr	r3, [r7, #12]
    2836:	2b05      	cmp	r3, #5
    2838:	d9ef      	bls.n	281a <_sercom_set_handler+0x22>
    283a:	4b06      	ldr	r3, [pc, #24]	; (2854 <_sercom_set_handler+0x5c>)
    283c:	2201      	movs	r2, #1
    283e:	701a      	strb	r2, [r3, #0]
    2840:	1dfb      	adds	r3, r7, #7
    2842:	781a      	ldrb	r2, [r3, #0]
    2844:	4b04      	ldr	r3, [pc, #16]	; (2858 <_sercom_set_handler+0x60>)
    2846:	0092      	lsls	r2, r2, #2
    2848:	6839      	ldr	r1, [r7, #0]
    284a:	50d1      	str	r1, [r2, r3]
    284c:	46c0      	nop			; (mov r8, r8)
    284e:	46bd      	mov	sp, r7
    2850:	b004      	add	sp, #16
    2852:	bd80      	pop	{r7, pc}
    2854:	2000008f 	.word	0x2000008f
    2858:	20000090 	.word	0x20000090
    285c:	000027e5 	.word	0x000027e5
    2860:	20000338 	.word	0x20000338

00002864 <_sercom_get_interrupt_vector>:
    2864:	b590      	push	{r4, r7, lr}
    2866:	b085      	sub	sp, #20
    2868:	af00      	add	r7, sp, #0
    286a:	6078      	str	r0, [r7, #4]
    286c:	2308      	movs	r3, #8
    286e:	18fb      	adds	r3, r7, r3
    2870:	4a0b      	ldr	r2, [pc, #44]	; (28a0 <_sercom_get_interrupt_vector+0x3c>)
    2872:	6811      	ldr	r1, [r2, #0]
    2874:	6019      	str	r1, [r3, #0]
    2876:	8892      	ldrh	r2, [r2, #4]
    2878:	809a      	strh	r2, [r3, #4]
    287a:	230f      	movs	r3, #15
    287c:	18fc      	adds	r4, r7, r3
    287e:	687b      	ldr	r3, [r7, #4]
    2880:	0018      	movs	r0, r3
    2882:	4b08      	ldr	r3, [pc, #32]	; (28a4 <_sercom_get_interrupt_vector+0x40>)
    2884:	4798      	blx	r3
    2886:	0003      	movs	r3, r0
    2888:	7023      	strb	r3, [r4, #0]
    288a:	230f      	movs	r3, #15
    288c:	18fb      	adds	r3, r7, r3
    288e:	781b      	ldrb	r3, [r3, #0]
    2890:	2208      	movs	r2, #8
    2892:	18ba      	adds	r2, r7, r2
    2894:	5cd3      	ldrb	r3, [r2, r3]
    2896:	b25b      	sxtb	r3, r3
    2898:	0018      	movs	r0, r3
    289a:	46bd      	mov	sp, r7
    289c:	b005      	add	sp, #20
    289e:	bd90      	pop	{r4, r7, pc}
    28a0:	0000431c 	.word	0x0000431c
    28a4:	00000961 	.word	0x00000961

000028a8 <SERCOM0_Handler>:
    28a8:	b580      	push	{r7, lr}
    28aa:	af00      	add	r7, sp, #0
    28ac:	4b03      	ldr	r3, [pc, #12]	; (28bc <SERCOM0_Handler+0x14>)
    28ae:	681b      	ldr	r3, [r3, #0]
    28b0:	2000      	movs	r0, #0
    28b2:	4798      	blx	r3
    28b4:	46c0      	nop			; (mov r8, r8)
    28b6:	46bd      	mov	sp, r7
    28b8:	bd80      	pop	{r7, pc}
    28ba:	46c0      	nop			; (mov r8, r8)
    28bc:	20000090 	.word	0x20000090

000028c0 <SERCOM1_Handler>:
    28c0:	b580      	push	{r7, lr}
    28c2:	af00      	add	r7, sp, #0
    28c4:	4b03      	ldr	r3, [pc, #12]	; (28d4 <SERCOM1_Handler+0x14>)
    28c6:	685b      	ldr	r3, [r3, #4]
    28c8:	2001      	movs	r0, #1
    28ca:	4798      	blx	r3
    28cc:	46c0      	nop			; (mov r8, r8)
    28ce:	46bd      	mov	sp, r7
    28d0:	bd80      	pop	{r7, pc}
    28d2:	46c0      	nop			; (mov r8, r8)
    28d4:	20000090 	.word	0x20000090

000028d8 <SERCOM2_Handler>:
    28d8:	b580      	push	{r7, lr}
    28da:	af00      	add	r7, sp, #0
    28dc:	4b03      	ldr	r3, [pc, #12]	; (28ec <SERCOM2_Handler+0x14>)
    28de:	689b      	ldr	r3, [r3, #8]
    28e0:	2002      	movs	r0, #2
    28e2:	4798      	blx	r3
    28e4:	46c0      	nop			; (mov r8, r8)
    28e6:	46bd      	mov	sp, r7
    28e8:	bd80      	pop	{r7, pc}
    28ea:	46c0      	nop			; (mov r8, r8)
    28ec:	20000090 	.word	0x20000090

000028f0 <SERCOM3_Handler>:
    28f0:	b580      	push	{r7, lr}
    28f2:	af00      	add	r7, sp, #0
    28f4:	4b03      	ldr	r3, [pc, #12]	; (2904 <SERCOM3_Handler+0x14>)
    28f6:	68db      	ldr	r3, [r3, #12]
    28f8:	2003      	movs	r0, #3
    28fa:	4798      	blx	r3
    28fc:	46c0      	nop			; (mov r8, r8)
    28fe:	46bd      	mov	sp, r7
    2900:	bd80      	pop	{r7, pc}
    2902:	46c0      	nop			; (mov r8, r8)
    2904:	20000090 	.word	0x20000090

00002908 <SERCOM4_Handler>:
    2908:	b580      	push	{r7, lr}
    290a:	af00      	add	r7, sp, #0
    290c:	4b03      	ldr	r3, [pc, #12]	; (291c <SERCOM4_Handler+0x14>)
    290e:	691b      	ldr	r3, [r3, #16]
    2910:	2004      	movs	r0, #4
    2912:	4798      	blx	r3
    2914:	46c0      	nop			; (mov r8, r8)
    2916:	46bd      	mov	sp, r7
    2918:	bd80      	pop	{r7, pc}
    291a:	46c0      	nop			; (mov r8, r8)
    291c:	20000090 	.word	0x20000090

00002920 <SERCOM5_Handler>:
    2920:	b580      	push	{r7, lr}
    2922:	af00      	add	r7, sp, #0
    2924:	4b03      	ldr	r3, [pc, #12]	; (2934 <SERCOM5_Handler+0x14>)
    2926:	695b      	ldr	r3, [r3, #20]
    2928:	2005      	movs	r0, #5
    292a:	4798      	blx	r3
    292c:	46c0      	nop			; (mov r8, r8)
    292e:	46bd      	mov	sp, r7
    2930:	bd80      	pop	{r7, pc}
    2932:	46c0      	nop			; (mov r8, r8)
    2934:	20000090 	.word	0x20000090

00002938 <delay_init>:
    2938:	b580      	push	{r7, lr}
    293a:	af00      	add	r7, sp, #0
    293c:	2000      	movs	r0, #0
    293e:	4b0f      	ldr	r3, [pc, #60]	; (297c <delay_init+0x44>)
    2940:	4798      	blx	r3
    2942:	0002      	movs	r2, r0
    2944:	4b0e      	ldr	r3, [pc, #56]	; (2980 <delay_init+0x48>)
    2946:	601a      	str	r2, [r3, #0]
    2948:	4b0d      	ldr	r3, [pc, #52]	; (2980 <delay_init+0x48>)
    294a:	6818      	ldr	r0, [r3, #0]
    294c:	4b0d      	ldr	r3, [pc, #52]	; (2984 <delay_init+0x4c>)
    294e:	22fa      	movs	r2, #250	; 0xfa
    2950:	0091      	lsls	r1, r2, #2
    2952:	4798      	blx	r3
    2954:	0003      	movs	r3, r0
    2956:	001a      	movs	r2, r3
    2958:	4b09      	ldr	r3, [pc, #36]	; (2980 <delay_init+0x48>)
    295a:	601a      	str	r2, [r3, #0]
    295c:	4b08      	ldr	r3, [pc, #32]	; (2980 <delay_init+0x48>)
    295e:	6818      	ldr	r0, [r3, #0]
    2960:	4b08      	ldr	r3, [pc, #32]	; (2984 <delay_init+0x4c>)
    2962:	22fa      	movs	r2, #250	; 0xfa
    2964:	0091      	lsls	r1, r2, #2
    2966:	4798      	blx	r3
    2968:	0003      	movs	r3, r0
    296a:	001a      	movs	r2, r3
    296c:	4b06      	ldr	r3, [pc, #24]	; (2988 <delay_init+0x50>)
    296e:	601a      	str	r2, [r3, #0]
    2970:	4b06      	ldr	r3, [pc, #24]	; (298c <delay_init+0x54>)
    2972:	2205      	movs	r2, #5
    2974:	601a      	str	r2, [r3, #0]
    2976:	46c0      	nop			; (mov r8, r8)
    2978:	46bd      	mov	sp, r7
    297a:	bd80      	pop	{r7, pc}
    297c:	00003761 	.word	0x00003761
    2980:	20000000 	.word	0x20000000
    2984:	00003fe9 	.word	0x00003fe9
    2988:	20000004 	.word	0x20000004
    298c:	e000e010 	.word	0xe000e010

00002990 <cpu_irq_enter_critical>:
    2990:	b580      	push	{r7, lr}
    2992:	b082      	sub	sp, #8
    2994:	af00      	add	r7, sp, #0
    2996:	4b10      	ldr	r3, [pc, #64]	; (29d8 <cpu_irq_enter_critical+0x48>)
    2998:	681b      	ldr	r3, [r3, #0]
    299a:	2b00      	cmp	r3, #0
    299c:	d112      	bne.n	29c4 <cpu_irq_enter_critical+0x34>
    299e:	f3ef 8310 	mrs	r3, PRIMASK
    29a2:	607b      	str	r3, [r7, #4]
    29a4:	687b      	ldr	r3, [r7, #4]
    29a6:	2b00      	cmp	r3, #0
    29a8:	d109      	bne.n	29be <cpu_irq_enter_critical+0x2e>
    29aa:	b672      	cpsid	i
    29ac:	f3bf 8f5f 	dmb	sy
    29b0:	4b0a      	ldr	r3, [pc, #40]	; (29dc <cpu_irq_enter_critical+0x4c>)
    29b2:	2200      	movs	r2, #0
    29b4:	701a      	strb	r2, [r3, #0]
    29b6:	4b0a      	ldr	r3, [pc, #40]	; (29e0 <cpu_irq_enter_critical+0x50>)
    29b8:	2201      	movs	r2, #1
    29ba:	701a      	strb	r2, [r3, #0]
    29bc:	e002      	b.n	29c4 <cpu_irq_enter_critical+0x34>
    29be:	4b08      	ldr	r3, [pc, #32]	; (29e0 <cpu_irq_enter_critical+0x50>)
    29c0:	2200      	movs	r2, #0
    29c2:	701a      	strb	r2, [r3, #0]
    29c4:	4b04      	ldr	r3, [pc, #16]	; (29d8 <cpu_irq_enter_critical+0x48>)
    29c6:	681b      	ldr	r3, [r3, #0]
    29c8:	1c5a      	adds	r2, r3, #1
    29ca:	4b03      	ldr	r3, [pc, #12]	; (29d8 <cpu_irq_enter_critical+0x48>)
    29cc:	601a      	str	r2, [r3, #0]
    29ce:	46c0      	nop			; (mov r8, r8)
    29d0:	46bd      	mov	sp, r7
    29d2:	b002      	add	sp, #8
    29d4:	bd80      	pop	{r7, pc}
    29d6:	46c0      	nop			; (mov r8, r8)
    29d8:	200000a8 	.word	0x200000a8
    29dc:	20000008 	.word	0x20000008
    29e0:	200000ac 	.word	0x200000ac

000029e4 <cpu_irq_leave_critical>:
    29e4:	b580      	push	{r7, lr}
    29e6:	af00      	add	r7, sp, #0
    29e8:	4b0b      	ldr	r3, [pc, #44]	; (2a18 <cpu_irq_leave_critical+0x34>)
    29ea:	681b      	ldr	r3, [r3, #0]
    29ec:	1e5a      	subs	r2, r3, #1
    29ee:	4b0a      	ldr	r3, [pc, #40]	; (2a18 <cpu_irq_leave_critical+0x34>)
    29f0:	601a      	str	r2, [r3, #0]
    29f2:	4b09      	ldr	r3, [pc, #36]	; (2a18 <cpu_irq_leave_critical+0x34>)
    29f4:	681b      	ldr	r3, [r3, #0]
    29f6:	2b00      	cmp	r3, #0
    29f8:	d10a      	bne.n	2a10 <cpu_irq_leave_critical+0x2c>
    29fa:	4b08      	ldr	r3, [pc, #32]	; (2a1c <cpu_irq_leave_critical+0x38>)
    29fc:	781b      	ldrb	r3, [r3, #0]
    29fe:	b2db      	uxtb	r3, r3
    2a00:	2b00      	cmp	r3, #0
    2a02:	d005      	beq.n	2a10 <cpu_irq_leave_critical+0x2c>
    2a04:	4b06      	ldr	r3, [pc, #24]	; (2a20 <cpu_irq_leave_critical+0x3c>)
    2a06:	2201      	movs	r2, #1
    2a08:	701a      	strb	r2, [r3, #0]
    2a0a:	f3bf 8f5f 	dmb	sy
    2a0e:	b662      	cpsie	i
    2a10:	46c0      	nop			; (mov r8, r8)
    2a12:	46bd      	mov	sp, r7
    2a14:	bd80      	pop	{r7, pc}
    2a16:	46c0      	nop			; (mov r8, r8)
    2a18:	200000a8 	.word	0x200000a8
    2a1c:	200000ac 	.word	0x200000ac
    2a20:	20000008 	.word	0x20000008

00002a24 <system_pinmux_get_group_from_gpio_pin>:
    2a24:	b580      	push	{r7, lr}
    2a26:	b084      	sub	sp, #16
    2a28:	af00      	add	r7, sp, #0
    2a2a:	0002      	movs	r2, r0
    2a2c:	1dfb      	adds	r3, r7, #7
    2a2e:	701a      	strb	r2, [r3, #0]
    2a30:	230f      	movs	r3, #15
    2a32:	18fb      	adds	r3, r7, r3
    2a34:	1dfa      	adds	r2, r7, #7
    2a36:	7812      	ldrb	r2, [r2, #0]
    2a38:	09d2      	lsrs	r2, r2, #7
    2a3a:	701a      	strb	r2, [r3, #0]
    2a3c:	230e      	movs	r3, #14
    2a3e:	18fb      	adds	r3, r7, r3
    2a40:	1dfa      	adds	r2, r7, #7
    2a42:	7812      	ldrb	r2, [r2, #0]
    2a44:	0952      	lsrs	r2, r2, #5
    2a46:	701a      	strb	r2, [r3, #0]
    2a48:	4b0d      	ldr	r3, [pc, #52]	; (2a80 <system_pinmux_get_group_from_gpio_pin+0x5c>)
    2a4a:	60bb      	str	r3, [r7, #8]
    2a4c:	230f      	movs	r3, #15
    2a4e:	18fb      	adds	r3, r7, r3
    2a50:	781b      	ldrb	r3, [r3, #0]
    2a52:	2b00      	cmp	r3, #0
    2a54:	d10f      	bne.n	2a76 <system_pinmux_get_group_from_gpio_pin+0x52>
    2a56:	230f      	movs	r3, #15
    2a58:	18fb      	adds	r3, r7, r3
    2a5a:	781b      	ldrb	r3, [r3, #0]
    2a5c:	009b      	lsls	r3, r3, #2
    2a5e:	2210      	movs	r2, #16
    2a60:	4694      	mov	ip, r2
    2a62:	44bc      	add	ip, r7
    2a64:	4463      	add	r3, ip
    2a66:	3b08      	subs	r3, #8
    2a68:	681a      	ldr	r2, [r3, #0]
    2a6a:	230e      	movs	r3, #14
    2a6c:	18fb      	adds	r3, r7, r3
    2a6e:	781b      	ldrb	r3, [r3, #0]
    2a70:	01db      	lsls	r3, r3, #7
    2a72:	18d3      	adds	r3, r2, r3
    2a74:	e000      	b.n	2a78 <system_pinmux_get_group_from_gpio_pin+0x54>
    2a76:	2300      	movs	r3, #0
    2a78:	0018      	movs	r0, r3
    2a7a:	46bd      	mov	sp, r7
    2a7c:	b004      	add	sp, #16
    2a7e:	bd80      	pop	{r7, pc}
    2a80:	41004400 	.word	0x41004400

00002a84 <port_get_group_from_gpio_pin>:
    2a84:	b580      	push	{r7, lr}
    2a86:	b082      	sub	sp, #8
    2a88:	af00      	add	r7, sp, #0
    2a8a:	0002      	movs	r2, r0
    2a8c:	1dfb      	adds	r3, r7, #7
    2a8e:	701a      	strb	r2, [r3, #0]
    2a90:	1dfb      	adds	r3, r7, #7
    2a92:	781b      	ldrb	r3, [r3, #0]
    2a94:	0018      	movs	r0, r3
    2a96:	4b03      	ldr	r3, [pc, #12]	; (2aa4 <port_get_group_from_gpio_pin+0x20>)
    2a98:	4798      	blx	r3
    2a9a:	0003      	movs	r3, r0
    2a9c:	0018      	movs	r0, r3
    2a9e:	46bd      	mov	sp, r7
    2aa0:	b002      	add	sp, #8
    2aa2:	bd80      	pop	{r7, pc}
    2aa4:	00002a25 	.word	0x00002a25

00002aa8 <port_get_config_defaults>:
    2aa8:	b580      	push	{r7, lr}
    2aaa:	b082      	sub	sp, #8
    2aac:	af00      	add	r7, sp, #0
    2aae:	6078      	str	r0, [r7, #4]
    2ab0:	687b      	ldr	r3, [r7, #4]
    2ab2:	2200      	movs	r2, #0
    2ab4:	701a      	strb	r2, [r3, #0]
    2ab6:	687b      	ldr	r3, [r7, #4]
    2ab8:	2201      	movs	r2, #1
    2aba:	705a      	strb	r2, [r3, #1]
    2abc:	687b      	ldr	r3, [r7, #4]
    2abe:	2200      	movs	r2, #0
    2ac0:	709a      	strb	r2, [r3, #2]
    2ac2:	46c0      	nop			; (mov r8, r8)
    2ac4:	46bd      	mov	sp, r7
    2ac6:	b002      	add	sp, #8
    2ac8:	bd80      	pop	{r7, pc}
	...

00002acc <port_pin_set_output_level>:
    2acc:	b580      	push	{r7, lr}
    2ace:	b084      	sub	sp, #16
    2ad0:	af00      	add	r7, sp, #0
    2ad2:	0002      	movs	r2, r0
    2ad4:	1dfb      	adds	r3, r7, #7
    2ad6:	701a      	strb	r2, [r3, #0]
    2ad8:	1dbb      	adds	r3, r7, #6
    2ada:	1c0a      	adds	r2, r1, #0
    2adc:	701a      	strb	r2, [r3, #0]
    2ade:	1dfb      	adds	r3, r7, #7
    2ae0:	781b      	ldrb	r3, [r3, #0]
    2ae2:	0018      	movs	r0, r3
    2ae4:	4b0d      	ldr	r3, [pc, #52]	; (2b1c <port_pin_set_output_level+0x50>)
    2ae6:	4798      	blx	r3
    2ae8:	0003      	movs	r3, r0
    2aea:	60fb      	str	r3, [r7, #12]
    2aec:	1dfb      	adds	r3, r7, #7
    2aee:	781b      	ldrb	r3, [r3, #0]
    2af0:	221f      	movs	r2, #31
    2af2:	4013      	ands	r3, r2
    2af4:	2201      	movs	r2, #1
    2af6:	409a      	lsls	r2, r3
    2af8:	0013      	movs	r3, r2
    2afa:	60bb      	str	r3, [r7, #8]
    2afc:	1dbb      	adds	r3, r7, #6
    2afe:	781b      	ldrb	r3, [r3, #0]
    2b00:	2b00      	cmp	r3, #0
    2b02:	d003      	beq.n	2b0c <port_pin_set_output_level+0x40>
    2b04:	68fb      	ldr	r3, [r7, #12]
    2b06:	68ba      	ldr	r2, [r7, #8]
    2b08:	619a      	str	r2, [r3, #24]
    2b0a:	e002      	b.n	2b12 <port_pin_set_output_level+0x46>
    2b0c:	68fb      	ldr	r3, [r7, #12]
    2b0e:	68ba      	ldr	r2, [r7, #8]
    2b10:	615a      	str	r2, [r3, #20]
    2b12:	46c0      	nop			; (mov r8, r8)
    2b14:	46bd      	mov	sp, r7
    2b16:	b004      	add	sp, #16
    2b18:	bd80      	pop	{r7, pc}
    2b1a:	46c0      	nop			; (mov r8, r8)
    2b1c:	00002a85 	.word	0x00002a85

00002b20 <system_board_init>:
    2b20:	b580      	push	{r7, lr}
    2b22:	b082      	sub	sp, #8
    2b24:	af00      	add	r7, sp, #0
    2b26:	1d3b      	adds	r3, r7, #4
    2b28:	0018      	movs	r0, r3
    2b2a:	4b0e      	ldr	r3, [pc, #56]	; (2b64 <system_board_init+0x44>)
    2b2c:	4798      	blx	r3
    2b2e:	1d3b      	adds	r3, r7, #4
    2b30:	2201      	movs	r2, #1
    2b32:	701a      	strb	r2, [r3, #0]
    2b34:	1d3b      	adds	r3, r7, #4
    2b36:	0019      	movs	r1, r3
    2b38:	2017      	movs	r0, #23
    2b3a:	4b0b      	ldr	r3, [pc, #44]	; (2b68 <system_board_init+0x48>)
    2b3c:	4798      	blx	r3
    2b3e:	2101      	movs	r1, #1
    2b40:	2017      	movs	r0, #23
    2b42:	4b0a      	ldr	r3, [pc, #40]	; (2b6c <system_board_init+0x4c>)
    2b44:	4798      	blx	r3
    2b46:	1d3b      	adds	r3, r7, #4
    2b48:	2200      	movs	r2, #0
    2b4a:	701a      	strb	r2, [r3, #0]
    2b4c:	1d3b      	adds	r3, r7, #4
    2b4e:	2201      	movs	r2, #1
    2b50:	705a      	strb	r2, [r3, #1]
    2b52:	1d3b      	adds	r3, r7, #4
    2b54:	0019      	movs	r1, r3
    2b56:	2037      	movs	r0, #55	; 0x37
    2b58:	4b03      	ldr	r3, [pc, #12]	; (2b68 <system_board_init+0x48>)
    2b5a:	4798      	blx	r3
    2b5c:	46c0      	nop			; (mov r8, r8)
    2b5e:	46bd      	mov	sp, r7
    2b60:	b002      	add	sp, #8
    2b62:	bd80      	pop	{r7, pc}
    2b64:	00002aa9 	.word	0x00002aa9
    2b68:	00002b99 	.word	0x00002b99
    2b6c:	00002acd 	.word	0x00002acd

00002b70 <system_pinmux_get_config_defaults>:
    2b70:	b580      	push	{r7, lr}
    2b72:	b082      	sub	sp, #8
    2b74:	af00      	add	r7, sp, #0
    2b76:	6078      	str	r0, [r7, #4]
    2b78:	687b      	ldr	r3, [r7, #4]
    2b7a:	2280      	movs	r2, #128	; 0x80
    2b7c:	701a      	strb	r2, [r3, #0]
    2b7e:	687b      	ldr	r3, [r7, #4]
    2b80:	2200      	movs	r2, #0
    2b82:	705a      	strb	r2, [r3, #1]
    2b84:	687b      	ldr	r3, [r7, #4]
    2b86:	2201      	movs	r2, #1
    2b88:	709a      	strb	r2, [r3, #2]
    2b8a:	687b      	ldr	r3, [r7, #4]
    2b8c:	2200      	movs	r2, #0
    2b8e:	70da      	strb	r2, [r3, #3]
    2b90:	46c0      	nop			; (mov r8, r8)
    2b92:	46bd      	mov	sp, r7
    2b94:	b002      	add	sp, #8
    2b96:	bd80      	pop	{r7, pc}

00002b98 <port_pin_set_config>:
    2b98:	b580      	push	{r7, lr}
    2b9a:	b084      	sub	sp, #16
    2b9c:	af00      	add	r7, sp, #0
    2b9e:	0002      	movs	r2, r0
    2ba0:	6039      	str	r1, [r7, #0]
    2ba2:	1dfb      	adds	r3, r7, #7
    2ba4:	701a      	strb	r2, [r3, #0]
    2ba6:	230c      	movs	r3, #12
    2ba8:	18fb      	adds	r3, r7, r3
    2baa:	0018      	movs	r0, r3
    2bac:	4b10      	ldr	r3, [pc, #64]	; (2bf0 <port_pin_set_config+0x58>)
    2bae:	4798      	blx	r3
    2bb0:	230c      	movs	r3, #12
    2bb2:	18fb      	adds	r3, r7, r3
    2bb4:	2280      	movs	r2, #128	; 0x80
    2bb6:	701a      	strb	r2, [r3, #0]
    2bb8:	683b      	ldr	r3, [r7, #0]
    2bba:	781a      	ldrb	r2, [r3, #0]
    2bbc:	230c      	movs	r3, #12
    2bbe:	18fb      	adds	r3, r7, r3
    2bc0:	705a      	strb	r2, [r3, #1]
    2bc2:	683b      	ldr	r3, [r7, #0]
    2bc4:	785a      	ldrb	r2, [r3, #1]
    2bc6:	230c      	movs	r3, #12
    2bc8:	18fb      	adds	r3, r7, r3
    2bca:	709a      	strb	r2, [r3, #2]
    2bcc:	683b      	ldr	r3, [r7, #0]
    2bce:	789a      	ldrb	r2, [r3, #2]
    2bd0:	230c      	movs	r3, #12
    2bd2:	18fb      	adds	r3, r7, r3
    2bd4:	70da      	strb	r2, [r3, #3]
    2bd6:	230c      	movs	r3, #12
    2bd8:	18fa      	adds	r2, r7, r3
    2bda:	1dfb      	adds	r3, r7, #7
    2bdc:	781b      	ldrb	r3, [r3, #0]
    2bde:	0011      	movs	r1, r2
    2be0:	0018      	movs	r0, r3
    2be2:	4b04      	ldr	r3, [pc, #16]	; (2bf4 <port_pin_set_config+0x5c>)
    2be4:	4798      	blx	r3
    2be6:	46c0      	nop			; (mov r8, r8)
    2be8:	46bd      	mov	sp, r7
    2bea:	b004      	add	sp, #16
    2bec:	bd80      	pop	{r7, pc}
    2bee:	46c0      	nop			; (mov r8, r8)
    2bf0:	00002b71 	.word	0x00002b71
    2bf4:	00003b25 	.word	0x00003b25

00002bf8 <system_gclk_gen_get_config_defaults>:
    2bf8:	b580      	push	{r7, lr}
    2bfa:	b082      	sub	sp, #8
    2bfc:	af00      	add	r7, sp, #0
    2bfe:	6078      	str	r0, [r7, #4]
    2c00:	687b      	ldr	r3, [r7, #4]
    2c02:	2201      	movs	r2, #1
    2c04:	605a      	str	r2, [r3, #4]
    2c06:	687b      	ldr	r3, [r7, #4]
    2c08:	2200      	movs	r2, #0
    2c0a:	705a      	strb	r2, [r3, #1]
    2c0c:	687b      	ldr	r3, [r7, #4]
    2c0e:	2206      	movs	r2, #6
    2c10:	701a      	strb	r2, [r3, #0]
    2c12:	687b      	ldr	r3, [r7, #4]
    2c14:	2200      	movs	r2, #0
    2c16:	721a      	strb	r2, [r3, #8]
    2c18:	687b      	ldr	r3, [r7, #4]
    2c1a:	2200      	movs	r2, #0
    2c1c:	725a      	strb	r2, [r3, #9]
    2c1e:	46c0      	nop			; (mov r8, r8)
    2c20:	46bd      	mov	sp, r7
    2c22:	b002      	add	sp, #8
    2c24:	bd80      	pop	{r7, pc}

00002c26 <system_gclk_chan_get_config_defaults>:
    2c26:	b580      	push	{r7, lr}
    2c28:	b082      	sub	sp, #8
    2c2a:	af00      	add	r7, sp, #0
    2c2c:	6078      	str	r0, [r7, #4]
    2c2e:	687b      	ldr	r3, [r7, #4]
    2c30:	2200      	movs	r2, #0
    2c32:	701a      	strb	r2, [r3, #0]
    2c34:	46c0      	nop			; (mov r8, r8)
    2c36:	46bd      	mov	sp, r7
    2c38:	b002      	add	sp, #8
    2c3a:	bd80      	pop	{r7, pc}

00002c3c <system_clock_source_xosc32k_get_config_defaults>:
    2c3c:	b580      	push	{r7, lr}
    2c3e:	b082      	sub	sp, #8
    2c40:	af00      	add	r7, sp, #0
    2c42:	6078      	str	r0, [r7, #4]
    2c44:	687b      	ldr	r3, [r7, #4]
    2c46:	2200      	movs	r2, #0
    2c48:	701a      	strb	r2, [r3, #0]
    2c4a:	687b      	ldr	r3, [r7, #4]
    2c4c:	2204      	movs	r2, #4
    2c4e:	705a      	strb	r2, [r3, #1]
    2c50:	687b      	ldr	r3, [r7, #4]
    2c52:	2200      	movs	r2, #0
    2c54:	709a      	strb	r2, [r3, #2]
    2c56:	687b      	ldr	r3, [r7, #4]
    2c58:	2280      	movs	r2, #128	; 0x80
    2c5a:	0212      	lsls	r2, r2, #8
    2c5c:	609a      	str	r2, [r3, #8]
    2c5e:	687b      	ldr	r3, [r7, #4]
    2c60:	2200      	movs	r2, #0
    2c62:	70da      	strb	r2, [r3, #3]
    2c64:	687b      	ldr	r3, [r7, #4]
    2c66:	2201      	movs	r2, #1
    2c68:	711a      	strb	r2, [r3, #4]
    2c6a:	687b      	ldr	r3, [r7, #4]
    2c6c:	2200      	movs	r2, #0
    2c6e:	731a      	strb	r2, [r3, #12]
    2c70:	687b      	ldr	r3, [r7, #4]
    2c72:	2201      	movs	r2, #1
    2c74:	735a      	strb	r2, [r3, #13]
    2c76:	687b      	ldr	r3, [r7, #4]
    2c78:	2200      	movs	r2, #0
    2c7a:	739a      	strb	r2, [r3, #14]
    2c7c:	46c0      	nop			; (mov r8, r8)
    2c7e:	46bd      	mov	sp, r7
    2c80:	b002      	add	sp, #8
    2c82:	bd80      	pop	{r7, pc}

00002c84 <system_clock_source_osc8m_get_config_defaults>:
    2c84:	b580      	push	{r7, lr}
    2c86:	b082      	sub	sp, #8
    2c88:	af00      	add	r7, sp, #0
    2c8a:	6078      	str	r0, [r7, #4]
    2c8c:	687b      	ldr	r3, [r7, #4]
    2c8e:	2203      	movs	r2, #3
    2c90:	701a      	strb	r2, [r3, #0]
    2c92:	687b      	ldr	r3, [r7, #4]
    2c94:	2200      	movs	r2, #0
    2c96:	705a      	strb	r2, [r3, #1]
    2c98:	687b      	ldr	r3, [r7, #4]
    2c9a:	2201      	movs	r2, #1
    2c9c:	709a      	strb	r2, [r3, #2]
    2c9e:	46c0      	nop			; (mov r8, r8)
    2ca0:	46bd      	mov	sp, r7
    2ca2:	b002      	add	sp, #8
    2ca4:	bd80      	pop	{r7, pc}

00002ca6 <system_clock_source_dfll_get_config_defaults>:
    2ca6:	b580      	push	{r7, lr}
    2ca8:	b082      	sub	sp, #8
    2caa:	af00      	add	r7, sp, #0
    2cac:	6078      	str	r0, [r7, #4]
    2cae:	687b      	ldr	r3, [r7, #4]
    2cb0:	2200      	movs	r2, #0
    2cb2:	701a      	strb	r2, [r3, #0]
    2cb4:	687b      	ldr	r3, [r7, #4]
    2cb6:	2200      	movs	r2, #0
    2cb8:	805a      	strh	r2, [r3, #2]
    2cba:	687b      	ldr	r3, [r7, #4]
    2cbc:	2200      	movs	r2, #0
    2cbe:	809a      	strh	r2, [r3, #4]
    2cc0:	687b      	ldr	r3, [r7, #4]
    2cc2:	2200      	movs	r2, #0
    2cc4:	719a      	strb	r2, [r3, #6]
    2cc6:	687b      	ldr	r3, [r7, #4]
    2cc8:	2200      	movs	r2, #0
    2cca:	71da      	strb	r2, [r3, #7]
    2ccc:	687b      	ldr	r3, [r7, #4]
    2cce:	2201      	movs	r2, #1
    2cd0:	705a      	strb	r2, [r3, #1]
    2cd2:	687b      	ldr	r3, [r7, #4]
    2cd4:	2207      	movs	r2, #7
    2cd6:	721a      	strb	r2, [r3, #8]
    2cd8:	687b      	ldr	r3, [r7, #4]
    2cda:	223f      	movs	r2, #63	; 0x3f
    2cdc:	815a      	strh	r2, [r3, #10]
    2cde:	687b      	ldr	r3, [r7, #4]
    2ce0:	2201      	movs	r2, #1
    2ce2:	731a      	strb	r2, [r3, #12]
    2ce4:	687b      	ldr	r3, [r7, #4]
    2ce6:	2201      	movs	r2, #1
    2ce8:	81da      	strh	r2, [r3, #14]
    2cea:	687b      	ldr	r3, [r7, #4]
    2cec:	2206      	movs	r2, #6
    2cee:	821a      	strh	r2, [r3, #16]
    2cf0:	46c0      	nop			; (mov r8, r8)
    2cf2:	46bd      	mov	sp, r7
    2cf4:	b002      	add	sp, #8
    2cf6:	bd80      	pop	{r7, pc}

00002cf8 <system_cpu_clock_set_divider>:
    2cf8:	b580      	push	{r7, lr}
    2cfa:	b082      	sub	sp, #8
    2cfc:	af00      	add	r7, sp, #0
    2cfe:	0002      	movs	r2, r0
    2d00:	1dfb      	adds	r3, r7, #7
    2d02:	701a      	strb	r2, [r3, #0]
    2d04:	4a03      	ldr	r2, [pc, #12]	; (2d14 <system_cpu_clock_set_divider+0x1c>)
    2d06:	1dfb      	adds	r3, r7, #7
    2d08:	781b      	ldrb	r3, [r3, #0]
    2d0a:	7213      	strb	r3, [r2, #8]
    2d0c:	46c0      	nop			; (mov r8, r8)
    2d0e:	46bd      	mov	sp, r7
    2d10:	b002      	add	sp, #8
    2d12:	bd80      	pop	{r7, pc}
    2d14:	40000400 	.word	0x40000400

00002d18 <system_apb_clock_set_divider>:
    2d18:	b580      	push	{r7, lr}
    2d1a:	b082      	sub	sp, #8
    2d1c:	af00      	add	r7, sp, #0
    2d1e:	0002      	movs	r2, r0
    2d20:	1dfb      	adds	r3, r7, #7
    2d22:	701a      	strb	r2, [r3, #0]
    2d24:	1dbb      	adds	r3, r7, #6
    2d26:	1c0a      	adds	r2, r1, #0
    2d28:	701a      	strb	r2, [r3, #0]
    2d2a:	1dfb      	adds	r3, r7, #7
    2d2c:	781b      	ldrb	r3, [r3, #0]
    2d2e:	2b01      	cmp	r3, #1
    2d30:	d008      	beq.n	2d44 <system_apb_clock_set_divider+0x2c>
    2d32:	2b02      	cmp	r3, #2
    2d34:	d00b      	beq.n	2d4e <system_apb_clock_set_divider+0x36>
    2d36:	2b00      	cmp	r3, #0
    2d38:	d10e      	bne.n	2d58 <system_apb_clock_set_divider+0x40>
    2d3a:	4a0b      	ldr	r2, [pc, #44]	; (2d68 <system_apb_clock_set_divider+0x50>)
    2d3c:	1dbb      	adds	r3, r7, #6
    2d3e:	781b      	ldrb	r3, [r3, #0]
    2d40:	7253      	strb	r3, [r2, #9]
    2d42:	e00b      	b.n	2d5c <system_apb_clock_set_divider+0x44>
    2d44:	4a08      	ldr	r2, [pc, #32]	; (2d68 <system_apb_clock_set_divider+0x50>)
    2d46:	1dbb      	adds	r3, r7, #6
    2d48:	781b      	ldrb	r3, [r3, #0]
    2d4a:	7293      	strb	r3, [r2, #10]
    2d4c:	e006      	b.n	2d5c <system_apb_clock_set_divider+0x44>
    2d4e:	4a06      	ldr	r2, [pc, #24]	; (2d68 <system_apb_clock_set_divider+0x50>)
    2d50:	1dbb      	adds	r3, r7, #6
    2d52:	781b      	ldrb	r3, [r3, #0]
    2d54:	72d3      	strb	r3, [r2, #11]
    2d56:	e001      	b.n	2d5c <system_apb_clock_set_divider+0x44>
    2d58:	2317      	movs	r3, #23
    2d5a:	e000      	b.n	2d5e <system_apb_clock_set_divider+0x46>
    2d5c:	2300      	movs	r3, #0
    2d5e:	0018      	movs	r0, r3
    2d60:	46bd      	mov	sp, r7
    2d62:	b002      	add	sp, #8
    2d64:	bd80      	pop	{r7, pc}
    2d66:	46c0      	nop			; (mov r8, r8)
    2d68:	40000400 	.word	0x40000400

00002d6c <system_flash_set_waitstates>:
    2d6c:	b580      	push	{r7, lr}
    2d6e:	b082      	sub	sp, #8
    2d70:	af00      	add	r7, sp, #0
    2d72:	0002      	movs	r2, r0
    2d74:	1dfb      	adds	r3, r7, #7
    2d76:	701a      	strb	r2, [r3, #0]
    2d78:	4a08      	ldr	r2, [pc, #32]	; (2d9c <system_flash_set_waitstates+0x30>)
    2d7a:	1dfb      	adds	r3, r7, #7
    2d7c:	781b      	ldrb	r3, [r3, #0]
    2d7e:	210f      	movs	r1, #15
    2d80:	400b      	ands	r3, r1
    2d82:	b2d9      	uxtb	r1, r3
    2d84:	6853      	ldr	r3, [r2, #4]
    2d86:	200f      	movs	r0, #15
    2d88:	4001      	ands	r1, r0
    2d8a:	0049      	lsls	r1, r1, #1
    2d8c:	201e      	movs	r0, #30
    2d8e:	4383      	bics	r3, r0
    2d90:	430b      	orrs	r3, r1
    2d92:	6053      	str	r3, [r2, #4]
    2d94:	46c0      	nop			; (mov r8, r8)
    2d96:	46bd      	mov	sp, r7
    2d98:	b002      	add	sp, #8
    2d9a:	bd80      	pop	{r7, pc}
    2d9c:	41004000 	.word	0x41004000

00002da0 <_system_dfll_wait_for_sync>:
    2da0:	b580      	push	{r7, lr}
    2da2:	af00      	add	r7, sp, #0
    2da4:	46c0      	nop			; (mov r8, r8)
    2da6:	4b04      	ldr	r3, [pc, #16]	; (2db8 <_system_dfll_wait_for_sync+0x18>)
    2da8:	68db      	ldr	r3, [r3, #12]
    2daa:	2210      	movs	r2, #16
    2dac:	4013      	ands	r3, r2
    2dae:	d0fa      	beq.n	2da6 <_system_dfll_wait_for_sync+0x6>
    2db0:	46c0      	nop			; (mov r8, r8)
    2db2:	46bd      	mov	sp, r7
    2db4:	bd80      	pop	{r7, pc}
    2db6:	46c0      	nop			; (mov r8, r8)
    2db8:	40000800 	.word	0x40000800

00002dbc <_system_clock_source_dfll_set_config_errata_9905>:
    2dbc:	b580      	push	{r7, lr}
    2dbe:	af00      	add	r7, sp, #0
    2dc0:	4b0c      	ldr	r3, [pc, #48]	; (2df4 <_system_clock_source_dfll_set_config_errata_9905+0x38>)
    2dc2:	2202      	movs	r2, #2
    2dc4:	849a      	strh	r2, [r3, #36]	; 0x24
    2dc6:	4b0c      	ldr	r3, [pc, #48]	; (2df8 <_system_clock_source_dfll_set_config_errata_9905+0x3c>)
    2dc8:	4798      	blx	r3
    2dca:	4a0a      	ldr	r2, [pc, #40]	; (2df4 <_system_clock_source_dfll_set_config_errata_9905+0x38>)
    2dcc:	4b0b      	ldr	r3, [pc, #44]	; (2dfc <_system_clock_source_dfll_set_config_errata_9905+0x40>)
    2dce:	689b      	ldr	r3, [r3, #8]
    2dd0:	62d3      	str	r3, [r2, #44]	; 0x2c
    2dd2:	4a08      	ldr	r2, [pc, #32]	; (2df4 <_system_clock_source_dfll_set_config_errata_9905+0x38>)
    2dd4:	4b09      	ldr	r3, [pc, #36]	; (2dfc <_system_clock_source_dfll_set_config_errata_9905+0x40>)
    2dd6:	685b      	ldr	r3, [r3, #4]
    2dd8:	6293      	str	r3, [r2, #40]	; 0x28
    2dda:	4b06      	ldr	r3, [pc, #24]	; (2df4 <_system_clock_source_dfll_set_config_errata_9905+0x38>)
    2ddc:	2200      	movs	r2, #0
    2dde:	849a      	strh	r2, [r3, #36]	; 0x24
    2de0:	4b05      	ldr	r3, [pc, #20]	; (2df8 <_system_clock_source_dfll_set_config_errata_9905+0x3c>)
    2de2:	4798      	blx	r3
    2de4:	4a03      	ldr	r2, [pc, #12]	; (2df4 <_system_clock_source_dfll_set_config_errata_9905+0x38>)
    2de6:	4b05      	ldr	r3, [pc, #20]	; (2dfc <_system_clock_source_dfll_set_config_errata_9905+0x40>)
    2de8:	681b      	ldr	r3, [r3, #0]
    2dea:	b29b      	uxth	r3, r3
    2dec:	8493      	strh	r3, [r2, #36]	; 0x24
    2dee:	46c0      	nop			; (mov r8, r8)
    2df0:	46bd      	mov	sp, r7
    2df2:	bd80      	pop	{r7, pc}
    2df4:	40000800 	.word	0x40000800
    2df8:	00002da1 	.word	0x00002da1
    2dfc:	200000b0 	.word	0x200000b0

00002e00 <system_clock_source_get_hz>:
    2e00:	b580      	push	{r7, lr}
    2e02:	b082      	sub	sp, #8
    2e04:	af00      	add	r7, sp, #0
    2e06:	0002      	movs	r2, r0
    2e08:	1dfb      	adds	r3, r7, #7
    2e0a:	701a      	strb	r2, [r3, #0]
    2e0c:	1dfb      	adds	r3, r7, #7
    2e0e:	781b      	ldrb	r3, [r3, #0]
    2e10:	2b08      	cmp	r3, #8
    2e12:	d841      	bhi.n	2e98 <system_clock_source_get_hz+0x98>
    2e14:	009a      	lsls	r2, r3, #2
    2e16:	4b23      	ldr	r3, [pc, #140]	; (2ea4 <system_clock_source_get_hz+0xa4>)
    2e18:	18d3      	adds	r3, r2, r3
    2e1a:	681b      	ldr	r3, [r3, #0]
    2e1c:	469f      	mov	pc, r3
    2e1e:	4b22      	ldr	r3, [pc, #136]	; (2ea8 <system_clock_source_get_hz+0xa8>)
    2e20:	691b      	ldr	r3, [r3, #16]
    2e22:	e03a      	b.n	2e9a <system_clock_source_get_hz+0x9a>
    2e24:	4b21      	ldr	r3, [pc, #132]	; (2eac <system_clock_source_get_hz+0xac>)
    2e26:	6a1b      	ldr	r3, [r3, #32]
    2e28:	059b      	lsls	r3, r3, #22
    2e2a:	0f9b      	lsrs	r3, r3, #30
    2e2c:	b2db      	uxtb	r3, r3
    2e2e:	001a      	movs	r2, r3
    2e30:	4b1f      	ldr	r3, [pc, #124]	; (2eb0 <system_clock_source_get_hz+0xb0>)
    2e32:	40d3      	lsrs	r3, r2
    2e34:	e031      	b.n	2e9a <system_clock_source_get_hz+0x9a>
    2e36:	2380      	movs	r3, #128	; 0x80
    2e38:	021b      	lsls	r3, r3, #8
    2e3a:	e02e      	b.n	2e9a <system_clock_source_get_hz+0x9a>
    2e3c:	2380      	movs	r3, #128	; 0x80
    2e3e:	021b      	lsls	r3, r3, #8
    2e40:	e02b      	b.n	2e9a <system_clock_source_get_hz+0x9a>
    2e42:	4b19      	ldr	r3, [pc, #100]	; (2ea8 <system_clock_source_get_hz+0xa8>)
    2e44:	695b      	ldr	r3, [r3, #20]
    2e46:	e028      	b.n	2e9a <system_clock_source_get_hz+0x9a>
    2e48:	4b17      	ldr	r3, [pc, #92]	; (2ea8 <system_clock_source_get_hz+0xa8>)
    2e4a:	681b      	ldr	r3, [r3, #0]
    2e4c:	2202      	movs	r2, #2
    2e4e:	4013      	ands	r3, r2
    2e50:	d101      	bne.n	2e56 <system_clock_source_get_hz+0x56>
    2e52:	2300      	movs	r3, #0
    2e54:	e021      	b.n	2e9a <system_clock_source_get_hz+0x9a>
    2e56:	4b17      	ldr	r3, [pc, #92]	; (2eb4 <system_clock_source_get_hz+0xb4>)
    2e58:	4798      	blx	r3
    2e5a:	4b13      	ldr	r3, [pc, #76]	; (2ea8 <system_clock_source_get_hz+0xa8>)
    2e5c:	681b      	ldr	r3, [r3, #0]
    2e5e:	2224      	movs	r2, #36	; 0x24
    2e60:	4013      	ands	r3, r2
    2e62:	2b04      	cmp	r3, #4
    2e64:	d109      	bne.n	2e7a <system_clock_source_get_hz+0x7a>
    2e66:	2000      	movs	r0, #0
    2e68:	4b13      	ldr	r3, [pc, #76]	; (2eb8 <system_clock_source_get_hz+0xb8>)
    2e6a:	4798      	blx	r3
    2e6c:	0002      	movs	r2, r0
    2e6e:	4b0e      	ldr	r3, [pc, #56]	; (2ea8 <system_clock_source_get_hz+0xa8>)
    2e70:	689b      	ldr	r3, [r3, #8]
    2e72:	041b      	lsls	r3, r3, #16
    2e74:	0c1b      	lsrs	r3, r3, #16
    2e76:	4353      	muls	r3, r2
    2e78:	e00f      	b.n	2e9a <system_clock_source_get_hz+0x9a>
    2e7a:	4b10      	ldr	r3, [pc, #64]	; (2ebc <system_clock_source_get_hz+0xbc>)
    2e7c:	e00d      	b.n	2e9a <system_clock_source_get_hz+0x9a>
    2e7e:	4a0b      	ldr	r2, [pc, #44]	; (2eac <system_clock_source_get_hz+0xac>)
    2e80:	2350      	movs	r3, #80	; 0x50
    2e82:	5cd3      	ldrb	r3, [r2, r3]
    2e84:	b2db      	uxtb	r3, r3
    2e86:	001a      	movs	r2, r3
    2e88:	2304      	movs	r3, #4
    2e8a:	4013      	ands	r3, r2
    2e8c:	d101      	bne.n	2e92 <system_clock_source_get_hz+0x92>
    2e8e:	2300      	movs	r3, #0
    2e90:	e003      	b.n	2e9a <system_clock_source_get_hz+0x9a>
    2e92:	4b05      	ldr	r3, [pc, #20]	; (2ea8 <system_clock_source_get_hz+0xa8>)
    2e94:	68db      	ldr	r3, [r3, #12]
    2e96:	e000      	b.n	2e9a <system_clock_source_get_hz+0x9a>
    2e98:	2300      	movs	r3, #0
    2e9a:	0018      	movs	r0, r3
    2e9c:	46bd      	mov	sp, r7
    2e9e:	b002      	add	sp, #8
    2ea0:	bd80      	pop	{r7, pc}
    2ea2:	46c0      	nop			; (mov r8, r8)
    2ea4:	00004324 	.word	0x00004324
    2ea8:	200000b0 	.word	0x200000b0
    2eac:	40000800 	.word	0x40000800
    2eb0:	007a1200 	.word	0x007a1200
    2eb4:	00002da1 	.word	0x00002da1
    2eb8:	0000395d 	.word	0x0000395d
    2ebc:	02dc6c00 	.word	0x02dc6c00

00002ec0 <system_clock_source_osc8m_set_config>:
    2ec0:	b580      	push	{r7, lr}
    2ec2:	b084      	sub	sp, #16
    2ec4:	af00      	add	r7, sp, #0
    2ec6:	6078      	str	r0, [r7, #4]
    2ec8:	4b1a      	ldr	r3, [pc, #104]	; (2f34 <system_clock_source_osc8m_set_config+0x74>)
    2eca:	6a1b      	ldr	r3, [r3, #32]
    2ecc:	60fb      	str	r3, [r7, #12]
    2ece:	687b      	ldr	r3, [r7, #4]
    2ed0:	781b      	ldrb	r3, [r3, #0]
    2ed2:	1c1a      	adds	r2, r3, #0
    2ed4:	2303      	movs	r3, #3
    2ed6:	4013      	ands	r3, r2
    2ed8:	b2da      	uxtb	r2, r3
    2eda:	230d      	movs	r3, #13
    2edc:	18fb      	adds	r3, r7, r3
    2ede:	2103      	movs	r1, #3
    2ee0:	400a      	ands	r2, r1
    2ee2:	0010      	movs	r0, r2
    2ee4:	781a      	ldrb	r2, [r3, #0]
    2ee6:	2103      	movs	r1, #3
    2ee8:	438a      	bics	r2, r1
    2eea:	1c11      	adds	r1, r2, #0
    2eec:	1c02      	adds	r2, r0, #0
    2eee:	430a      	orrs	r2, r1
    2ef0:	701a      	strb	r2, [r3, #0]
    2ef2:	687b      	ldr	r3, [r7, #4]
    2ef4:	789a      	ldrb	r2, [r3, #2]
    2ef6:	230c      	movs	r3, #12
    2ef8:	18fb      	adds	r3, r7, r3
    2efa:	01d0      	lsls	r0, r2, #7
    2efc:	781a      	ldrb	r2, [r3, #0]
    2efe:	217f      	movs	r1, #127	; 0x7f
    2f00:	400a      	ands	r2, r1
    2f02:	1c11      	adds	r1, r2, #0
    2f04:	1c02      	adds	r2, r0, #0
    2f06:	430a      	orrs	r2, r1
    2f08:	701a      	strb	r2, [r3, #0]
    2f0a:	687b      	ldr	r3, [r7, #4]
    2f0c:	785a      	ldrb	r2, [r3, #1]
    2f0e:	230c      	movs	r3, #12
    2f10:	18fb      	adds	r3, r7, r3
    2f12:	2101      	movs	r1, #1
    2f14:	400a      	ands	r2, r1
    2f16:	0190      	lsls	r0, r2, #6
    2f18:	781a      	ldrb	r2, [r3, #0]
    2f1a:	2140      	movs	r1, #64	; 0x40
    2f1c:	438a      	bics	r2, r1
    2f1e:	1c11      	adds	r1, r2, #0
    2f20:	1c02      	adds	r2, r0, #0
    2f22:	430a      	orrs	r2, r1
    2f24:	701a      	strb	r2, [r3, #0]
    2f26:	4b03      	ldr	r3, [pc, #12]	; (2f34 <system_clock_source_osc8m_set_config+0x74>)
    2f28:	68fa      	ldr	r2, [r7, #12]
    2f2a:	621a      	str	r2, [r3, #32]
    2f2c:	46c0      	nop			; (mov r8, r8)
    2f2e:	46bd      	mov	sp, r7
    2f30:	b004      	add	sp, #16
    2f32:	bd80      	pop	{r7, pc}
    2f34:	40000800 	.word	0x40000800

00002f38 <system_clock_source_xosc32k_set_config>:
    2f38:	b580      	push	{r7, lr}
    2f3a:	b084      	sub	sp, #16
    2f3c:	af00      	add	r7, sp, #0
    2f3e:	6078      	str	r0, [r7, #4]
    2f40:	4a43      	ldr	r2, [pc, #268]	; (3050 <system_clock_source_xosc32k_set_config+0x118>)
    2f42:	230c      	movs	r3, #12
    2f44:	18fb      	adds	r3, r7, r3
    2f46:	8a92      	ldrh	r2, [r2, #20]
    2f48:	801a      	strh	r2, [r3, #0]
    2f4a:	687b      	ldr	r3, [r7, #4]
    2f4c:	785b      	ldrb	r3, [r3, #1]
    2f4e:	1c1a      	adds	r2, r3, #0
    2f50:	2307      	movs	r3, #7
    2f52:	4013      	ands	r3, r2
    2f54:	b2da      	uxtb	r2, r3
    2f56:	230c      	movs	r3, #12
    2f58:	18fb      	adds	r3, r7, r3
    2f5a:	2107      	movs	r1, #7
    2f5c:	400a      	ands	r2, r1
    2f5e:	0010      	movs	r0, r2
    2f60:	785a      	ldrb	r2, [r3, #1]
    2f62:	2107      	movs	r1, #7
    2f64:	438a      	bics	r2, r1
    2f66:	1c11      	adds	r1, r2, #0
    2f68:	1c02      	adds	r2, r0, #0
    2f6a:	430a      	orrs	r2, r1
    2f6c:	705a      	strb	r2, [r3, #1]
    2f6e:	687b      	ldr	r3, [r7, #4]
    2f70:	781b      	ldrb	r3, [r3, #0]
    2f72:	2b00      	cmp	r3, #0
    2f74:	d106      	bne.n	2f84 <system_clock_source_xosc32k_set_config+0x4c>
    2f76:	230c      	movs	r3, #12
    2f78:	18fb      	adds	r3, r7, r3
    2f7a:	781a      	ldrb	r2, [r3, #0]
    2f7c:	2104      	movs	r1, #4
    2f7e:	430a      	orrs	r2, r1
    2f80:	701a      	strb	r2, [r3, #0]
    2f82:	e005      	b.n	2f90 <system_clock_source_xosc32k_set_config+0x58>
    2f84:	230c      	movs	r3, #12
    2f86:	18fb      	adds	r3, r7, r3
    2f88:	781a      	ldrb	r2, [r3, #0]
    2f8a:	2104      	movs	r1, #4
    2f8c:	438a      	bics	r2, r1
    2f8e:	701a      	strb	r2, [r3, #0]
    2f90:	687b      	ldr	r3, [r7, #4]
    2f92:	789a      	ldrb	r2, [r3, #2]
    2f94:	230c      	movs	r3, #12
    2f96:	18fb      	adds	r3, r7, r3
    2f98:	2101      	movs	r1, #1
    2f9a:	400a      	ands	r2, r1
    2f9c:	0150      	lsls	r0, r2, #5
    2f9e:	781a      	ldrb	r2, [r3, #0]
    2fa0:	2120      	movs	r1, #32
    2fa2:	438a      	bics	r2, r1
    2fa4:	1c11      	adds	r1, r2, #0
    2fa6:	1c02      	adds	r2, r0, #0
    2fa8:	430a      	orrs	r2, r1
    2faa:	701a      	strb	r2, [r3, #0]
    2fac:	687b      	ldr	r3, [r7, #4]
    2fae:	78da      	ldrb	r2, [r3, #3]
    2fb0:	230c      	movs	r3, #12
    2fb2:	18fb      	adds	r3, r7, r3
    2fb4:	2101      	movs	r1, #1
    2fb6:	400a      	ands	r2, r1
    2fb8:	0110      	lsls	r0, r2, #4
    2fba:	781a      	ldrb	r2, [r3, #0]
    2fbc:	2110      	movs	r1, #16
    2fbe:	438a      	bics	r2, r1
    2fc0:	1c11      	adds	r1, r2, #0
    2fc2:	1c02      	adds	r2, r0, #0
    2fc4:	430a      	orrs	r2, r1
    2fc6:	701a      	strb	r2, [r3, #0]
    2fc8:	687b      	ldr	r3, [r7, #4]
    2fca:	791a      	ldrb	r2, [r3, #4]
    2fcc:	230c      	movs	r3, #12
    2fce:	18fb      	adds	r3, r7, r3
    2fd0:	2101      	movs	r1, #1
    2fd2:	400a      	ands	r2, r1
    2fd4:	00d0      	lsls	r0, r2, #3
    2fd6:	781a      	ldrb	r2, [r3, #0]
    2fd8:	2108      	movs	r1, #8
    2fda:	438a      	bics	r2, r1
    2fdc:	1c11      	adds	r1, r2, #0
    2fde:	1c02      	adds	r2, r0, #0
    2fe0:	430a      	orrs	r2, r1
    2fe2:	701a      	strb	r2, [r3, #0]
    2fe4:	687b      	ldr	r3, [r7, #4]
    2fe6:	7b5a      	ldrb	r2, [r3, #13]
    2fe8:	230c      	movs	r3, #12
    2fea:	18fb      	adds	r3, r7, r3
    2fec:	01d0      	lsls	r0, r2, #7
    2fee:	781a      	ldrb	r2, [r3, #0]
    2ff0:	217f      	movs	r1, #127	; 0x7f
    2ff2:	400a      	ands	r2, r1
    2ff4:	1c11      	adds	r1, r2, #0
    2ff6:	1c02      	adds	r2, r0, #0
    2ff8:	430a      	orrs	r2, r1
    2ffa:	701a      	strb	r2, [r3, #0]
    2ffc:	687b      	ldr	r3, [r7, #4]
    2ffe:	7b1a      	ldrb	r2, [r3, #12]
    3000:	230c      	movs	r3, #12
    3002:	18fb      	adds	r3, r7, r3
    3004:	2101      	movs	r1, #1
    3006:	400a      	ands	r2, r1
    3008:	0190      	lsls	r0, r2, #6
    300a:	781a      	ldrb	r2, [r3, #0]
    300c:	2140      	movs	r1, #64	; 0x40
    300e:	438a      	bics	r2, r1
    3010:	1c11      	adds	r1, r2, #0
    3012:	1c02      	adds	r2, r0, #0
    3014:	430a      	orrs	r2, r1
    3016:	701a      	strb	r2, [r3, #0]
    3018:	687b      	ldr	r3, [r7, #4]
    301a:	7b9a      	ldrb	r2, [r3, #14]
    301c:	230c      	movs	r3, #12
    301e:	18fb      	adds	r3, r7, r3
    3020:	2101      	movs	r1, #1
    3022:	400a      	ands	r2, r1
    3024:	0110      	lsls	r0, r2, #4
    3026:	785a      	ldrb	r2, [r3, #1]
    3028:	2110      	movs	r1, #16
    302a:	438a      	bics	r2, r1
    302c:	1c11      	adds	r1, r2, #0
    302e:	1c02      	adds	r2, r0, #0
    3030:	430a      	orrs	r2, r1
    3032:	705a      	strb	r2, [r3, #1]
    3034:	687b      	ldr	r3, [r7, #4]
    3036:	689a      	ldr	r2, [r3, #8]
    3038:	4b06      	ldr	r3, [pc, #24]	; (3054 <system_clock_source_xosc32k_set_config+0x11c>)
    303a:	615a      	str	r2, [r3, #20]
    303c:	4a04      	ldr	r2, [pc, #16]	; (3050 <system_clock_source_xosc32k_set_config+0x118>)
    303e:	230c      	movs	r3, #12
    3040:	18fb      	adds	r3, r7, r3
    3042:	881b      	ldrh	r3, [r3, #0]
    3044:	8293      	strh	r3, [r2, #20]
    3046:	46c0      	nop			; (mov r8, r8)
    3048:	46bd      	mov	sp, r7
    304a:	b004      	add	sp, #16
    304c:	bd80      	pop	{r7, pc}
    304e:	46c0      	nop			; (mov r8, r8)
    3050:	40000800 	.word	0x40000800
    3054:	200000b0 	.word	0x200000b0

00003058 <system_clock_source_dfll_set_config>:
    3058:	b580      	push	{r7, lr}
    305a:	b082      	sub	sp, #8
    305c:	af00      	add	r7, sp, #0
    305e:	6078      	str	r0, [r7, #4]
    3060:	687b      	ldr	r3, [r7, #4]
    3062:	7a1b      	ldrb	r3, [r3, #8]
    3064:	029b      	lsls	r3, r3, #10
    3066:	041b      	lsls	r3, r3, #16
    3068:	0c1a      	lsrs	r2, r3, #16
    306a:	687b      	ldr	r3, [r7, #4]
    306c:	895b      	ldrh	r3, [r3, #10]
    306e:	059b      	lsls	r3, r3, #22
    3070:	0d9b      	lsrs	r3, r3, #22
    3072:	431a      	orrs	r2, r3
    3074:	4b2a      	ldr	r3, [pc, #168]	; (3120 <system_clock_source_dfll_set_config+0xc8>)
    3076:	605a      	str	r2, [r3, #4]
    3078:	687b      	ldr	r3, [r7, #4]
    307a:	799a      	ldrb	r2, [r3, #6]
    307c:	687b      	ldr	r3, [r7, #4]
    307e:	79db      	ldrb	r3, [r3, #7]
    3080:	4313      	orrs	r3, r2
    3082:	b2db      	uxtb	r3, r3
    3084:	001a      	movs	r2, r3
    3086:	687b      	ldr	r3, [r7, #4]
    3088:	885b      	ldrh	r3, [r3, #2]
    308a:	4313      	orrs	r3, r2
    308c:	687a      	ldr	r2, [r7, #4]
    308e:	8892      	ldrh	r2, [r2, #4]
    3090:	431a      	orrs	r2, r3
    3092:	687b      	ldr	r3, [r7, #4]
    3094:	785b      	ldrb	r3, [r3, #1]
    3096:	01db      	lsls	r3, r3, #7
    3098:	431a      	orrs	r2, r3
    309a:	4b21      	ldr	r3, [pc, #132]	; (3120 <system_clock_source_dfll_set_config+0xc8>)
    309c:	601a      	str	r2, [r3, #0]
    309e:	687b      	ldr	r3, [r7, #4]
    30a0:	781b      	ldrb	r3, [r3, #0]
    30a2:	2b04      	cmp	r3, #4
    30a4:	d116      	bne.n	30d4 <system_clock_source_dfll_set_config+0x7c>
    30a6:	687b      	ldr	r3, [r7, #4]
    30a8:	7b1b      	ldrb	r3, [r3, #12]
    30aa:	069b      	lsls	r3, r3, #26
    30ac:	001a      	movs	r2, r3
    30ae:	687b      	ldr	r3, [r7, #4]
    30b0:	89db      	ldrh	r3, [r3, #14]
    30b2:	041b      	lsls	r3, r3, #16
    30b4:	0019      	movs	r1, r3
    30b6:	4b1b      	ldr	r3, [pc, #108]	; (3124 <system_clock_source_dfll_set_config+0xcc>)
    30b8:	400b      	ands	r3, r1
    30ba:	4313      	orrs	r3, r2
    30bc:	687a      	ldr	r2, [r7, #4]
    30be:	8a12      	ldrh	r2, [r2, #16]
    30c0:	431a      	orrs	r2, r3
    30c2:	4b17      	ldr	r3, [pc, #92]	; (3120 <system_clock_source_dfll_set_config+0xc8>)
    30c4:	609a      	str	r2, [r3, #8]
    30c6:	4b16      	ldr	r3, [pc, #88]	; (3120 <system_clock_source_dfll_set_config+0xc8>)
    30c8:	681b      	ldr	r3, [r3, #0]
    30ca:	687a      	ldr	r2, [r7, #4]
    30cc:	7812      	ldrb	r2, [r2, #0]
    30ce:	431a      	orrs	r2, r3
    30d0:	4b13      	ldr	r3, [pc, #76]	; (3120 <system_clock_source_dfll_set_config+0xc8>)
    30d2:	601a      	str	r2, [r3, #0]
    30d4:	687b      	ldr	r3, [r7, #4]
    30d6:	781b      	ldrb	r3, [r3, #0]
    30d8:	2b20      	cmp	r3, #32
    30da:	d11c      	bne.n	3116 <system_clock_source_dfll_set_config+0xbe>
    30dc:	687b      	ldr	r3, [r7, #4]
    30de:	7b1b      	ldrb	r3, [r3, #12]
    30e0:	069b      	lsls	r3, r3, #26
    30e2:	001a      	movs	r2, r3
    30e4:	687b      	ldr	r3, [r7, #4]
    30e6:	89db      	ldrh	r3, [r3, #14]
    30e8:	041b      	lsls	r3, r3, #16
    30ea:	0019      	movs	r1, r3
    30ec:	4b0d      	ldr	r3, [pc, #52]	; (3124 <system_clock_source_dfll_set_config+0xcc>)
    30ee:	400b      	ands	r3, r1
    30f0:	4313      	orrs	r3, r2
    30f2:	687a      	ldr	r2, [r7, #4]
    30f4:	8a12      	ldrh	r2, [r2, #16]
    30f6:	431a      	orrs	r2, r3
    30f8:	4b09      	ldr	r3, [pc, #36]	; (3120 <system_clock_source_dfll_set_config+0xc8>)
    30fa:	609a      	str	r2, [r3, #8]
    30fc:	4b08      	ldr	r3, [pc, #32]	; (3120 <system_clock_source_dfll_set_config+0xc8>)
    30fe:	681b      	ldr	r3, [r3, #0]
    3100:	687a      	ldr	r2, [r7, #4]
    3102:	7812      	ldrb	r2, [r2, #0]
    3104:	2104      	movs	r1, #4
    3106:	430a      	orrs	r2, r1
    3108:	b2d2      	uxtb	r2, r2
    310a:	4313      	orrs	r3, r2
    310c:	2280      	movs	r2, #128	; 0x80
    310e:	00d2      	lsls	r2, r2, #3
    3110:	431a      	orrs	r2, r3
    3112:	4b03      	ldr	r3, [pc, #12]	; (3120 <system_clock_source_dfll_set_config+0xc8>)
    3114:	601a      	str	r2, [r3, #0]
    3116:	46c0      	nop			; (mov r8, r8)
    3118:	46bd      	mov	sp, r7
    311a:	b002      	add	sp, #8
    311c:	bd80      	pop	{r7, pc}
    311e:	46c0      	nop			; (mov r8, r8)
    3120:	200000b0 	.word	0x200000b0
    3124:	03ff0000 	.word	0x03ff0000

00003128 <system_clock_source_enable>:
    3128:	b580      	push	{r7, lr}
    312a:	b082      	sub	sp, #8
    312c:	af00      	add	r7, sp, #0
    312e:	0002      	movs	r2, r0
    3130:	1dfb      	adds	r3, r7, #7
    3132:	701a      	strb	r2, [r3, #0]
    3134:	1dfb      	adds	r3, r7, #7
    3136:	781b      	ldrb	r3, [r3, #0]
    3138:	2b08      	cmp	r3, #8
    313a:	d83b      	bhi.n	31b4 <system_clock_source_enable+0x8c>
    313c:	009a      	lsls	r2, r3, #2
    313e:	4b21      	ldr	r3, [pc, #132]	; (31c4 <system_clock_source_enable+0x9c>)
    3140:	18d3      	adds	r3, r2, r3
    3142:	681b      	ldr	r3, [r3, #0]
    3144:	469f      	mov	pc, r3
    3146:	4b20      	ldr	r3, [pc, #128]	; (31c8 <system_clock_source_enable+0xa0>)
    3148:	4a1f      	ldr	r2, [pc, #124]	; (31c8 <system_clock_source_enable+0xa0>)
    314a:	6a12      	ldr	r2, [r2, #32]
    314c:	2102      	movs	r1, #2
    314e:	430a      	orrs	r2, r1
    3150:	621a      	str	r2, [r3, #32]
    3152:	2300      	movs	r3, #0
    3154:	e031      	b.n	31ba <system_clock_source_enable+0x92>
    3156:	4b1c      	ldr	r3, [pc, #112]	; (31c8 <system_clock_source_enable+0xa0>)
    3158:	4a1b      	ldr	r2, [pc, #108]	; (31c8 <system_clock_source_enable+0xa0>)
    315a:	6992      	ldr	r2, [r2, #24]
    315c:	2102      	movs	r1, #2
    315e:	430a      	orrs	r2, r1
    3160:	619a      	str	r2, [r3, #24]
    3162:	e029      	b.n	31b8 <system_clock_source_enable+0x90>
    3164:	4a18      	ldr	r2, [pc, #96]	; (31c8 <system_clock_source_enable+0xa0>)
    3166:	4b18      	ldr	r3, [pc, #96]	; (31c8 <system_clock_source_enable+0xa0>)
    3168:	8a1b      	ldrh	r3, [r3, #16]
    316a:	b29b      	uxth	r3, r3
    316c:	2102      	movs	r1, #2
    316e:	430b      	orrs	r3, r1
    3170:	b29b      	uxth	r3, r3
    3172:	8213      	strh	r3, [r2, #16]
    3174:	e020      	b.n	31b8 <system_clock_source_enable+0x90>
    3176:	4a14      	ldr	r2, [pc, #80]	; (31c8 <system_clock_source_enable+0xa0>)
    3178:	4b13      	ldr	r3, [pc, #76]	; (31c8 <system_clock_source_enable+0xa0>)
    317a:	8a9b      	ldrh	r3, [r3, #20]
    317c:	b29b      	uxth	r3, r3
    317e:	2102      	movs	r1, #2
    3180:	430b      	orrs	r3, r1
    3182:	b29b      	uxth	r3, r3
    3184:	8293      	strh	r3, [r2, #20]
    3186:	e017      	b.n	31b8 <system_clock_source_enable+0x90>
    3188:	4b10      	ldr	r3, [pc, #64]	; (31cc <system_clock_source_enable+0xa4>)
    318a:	681b      	ldr	r3, [r3, #0]
    318c:	2202      	movs	r2, #2
    318e:	431a      	orrs	r2, r3
    3190:	4b0e      	ldr	r3, [pc, #56]	; (31cc <system_clock_source_enable+0xa4>)
    3192:	601a      	str	r2, [r3, #0]
    3194:	4b0e      	ldr	r3, [pc, #56]	; (31d0 <system_clock_source_enable+0xa8>)
    3196:	4798      	blx	r3
    3198:	e00e      	b.n	31b8 <system_clock_source_enable+0x90>
    319a:	4a0b      	ldr	r2, [pc, #44]	; (31c8 <system_clock_source_enable+0xa0>)
    319c:	490a      	ldr	r1, [pc, #40]	; (31c8 <system_clock_source_enable+0xa0>)
    319e:	2344      	movs	r3, #68	; 0x44
    31a0:	5ccb      	ldrb	r3, [r1, r3]
    31a2:	b2db      	uxtb	r3, r3
    31a4:	2102      	movs	r1, #2
    31a6:	430b      	orrs	r3, r1
    31a8:	b2d9      	uxtb	r1, r3
    31aa:	2344      	movs	r3, #68	; 0x44
    31ac:	54d1      	strb	r1, [r2, r3]
    31ae:	e003      	b.n	31b8 <system_clock_source_enable+0x90>
    31b0:	2300      	movs	r3, #0
    31b2:	e002      	b.n	31ba <system_clock_source_enable+0x92>
    31b4:	2317      	movs	r3, #23
    31b6:	e000      	b.n	31ba <system_clock_source_enable+0x92>
    31b8:	2300      	movs	r3, #0
    31ba:	0018      	movs	r0, r3
    31bc:	46bd      	mov	sp, r7
    31be:	b002      	add	sp, #8
    31c0:	bd80      	pop	{r7, pc}
    31c2:	46c0      	nop			; (mov r8, r8)
    31c4:	00004348 	.word	0x00004348
    31c8:	40000800 	.word	0x40000800
    31cc:	200000b0 	.word	0x200000b0
    31d0:	00002dbd 	.word	0x00002dbd

000031d4 <system_clock_source_is_ready>:
    31d4:	b580      	push	{r7, lr}
    31d6:	b084      	sub	sp, #16
    31d8:	af00      	add	r7, sp, #0
    31da:	0002      	movs	r2, r0
    31dc:	1dfb      	adds	r3, r7, #7
    31de:	701a      	strb	r2, [r3, #0]
    31e0:	2300      	movs	r3, #0
    31e2:	60fb      	str	r3, [r7, #12]
    31e4:	1dfb      	adds	r3, r7, #7
    31e6:	781b      	ldrb	r3, [r3, #0]
    31e8:	2b08      	cmp	r3, #8
    31ea:	d821      	bhi.n	3230 <system_clock_source_is_ready+0x5c>
    31ec:	009a      	lsls	r2, r3, #2
    31ee:	4b18      	ldr	r3, [pc, #96]	; (3250 <system_clock_source_is_ready+0x7c>)
    31f0:	18d3      	adds	r3, r2, r3
    31f2:	681b      	ldr	r3, [r3, #0]
    31f4:	469f      	mov	pc, r3
    31f6:	2308      	movs	r3, #8
    31f8:	60fb      	str	r3, [r7, #12]
    31fa:	e01b      	b.n	3234 <system_clock_source_is_ready+0x60>
    31fc:	2304      	movs	r3, #4
    31fe:	60fb      	str	r3, [r7, #12]
    3200:	e018      	b.n	3234 <system_clock_source_is_ready+0x60>
    3202:	2301      	movs	r3, #1
    3204:	60fb      	str	r3, [r7, #12]
    3206:	e015      	b.n	3234 <system_clock_source_is_ready+0x60>
    3208:	2302      	movs	r3, #2
    320a:	60fb      	str	r3, [r7, #12]
    320c:	e012      	b.n	3234 <system_clock_source_is_ready+0x60>
    320e:	23d0      	movs	r3, #208	; 0xd0
    3210:	60fb      	str	r3, [r7, #12]
    3212:	e00f      	b.n	3234 <system_clock_source_is_ready+0x60>
    3214:	4a0f      	ldr	r2, [pc, #60]	; (3254 <system_clock_source_is_ready+0x80>)
    3216:	2350      	movs	r3, #80	; 0x50
    3218:	5cd3      	ldrb	r3, [r2, r3]
    321a:	b2db      	uxtb	r3, r3
    321c:	001a      	movs	r2, r3
    321e:	2303      	movs	r3, #3
    3220:	4013      	ands	r3, r2
    3222:	3b03      	subs	r3, #3
    3224:	425a      	negs	r2, r3
    3226:	4153      	adcs	r3, r2
    3228:	b2db      	uxtb	r3, r3
    322a:	e00c      	b.n	3246 <system_clock_source_is_ready+0x72>
    322c:	2301      	movs	r3, #1
    322e:	e00a      	b.n	3246 <system_clock_source_is_ready+0x72>
    3230:	2300      	movs	r3, #0
    3232:	e008      	b.n	3246 <system_clock_source_is_ready+0x72>
    3234:	4b07      	ldr	r3, [pc, #28]	; (3254 <system_clock_source_is_ready+0x80>)
    3236:	68db      	ldr	r3, [r3, #12]
    3238:	68fa      	ldr	r2, [r7, #12]
    323a:	401a      	ands	r2, r3
    323c:	68fb      	ldr	r3, [r7, #12]
    323e:	1ad3      	subs	r3, r2, r3
    3240:	425a      	negs	r2, r3
    3242:	4153      	adcs	r3, r2
    3244:	b2db      	uxtb	r3, r3
    3246:	0018      	movs	r0, r3
    3248:	46bd      	mov	sp, r7
    324a:	b004      	add	sp, #16
    324c:	bd80      	pop	{r7, pc}
    324e:	46c0      	nop			; (mov r8, r8)
    3250:	0000436c 	.word	0x0000436c
    3254:	40000800 	.word	0x40000800

00003258 <_switch_peripheral_gclk>:
    3258:	b580      	push	{r7, lr}
    325a:	b082      	sub	sp, #8
    325c:	af00      	add	r7, sp, #0
    325e:	003b      	movs	r3, r7
    3260:	2202      	movs	r2, #2
    3262:	701a      	strb	r2, [r3, #0]
    3264:	2300      	movs	r3, #0
    3266:	607b      	str	r3, [r7, #4]
    3268:	e009      	b.n	327e <_switch_peripheral_gclk+0x26>
    326a:	687b      	ldr	r3, [r7, #4]
    326c:	b2db      	uxtb	r3, r3
    326e:	003a      	movs	r2, r7
    3270:	0011      	movs	r1, r2
    3272:	0018      	movs	r0, r3
    3274:	4b05      	ldr	r3, [pc, #20]	; (328c <_switch_peripheral_gclk+0x34>)
    3276:	4798      	blx	r3
    3278:	687b      	ldr	r3, [r7, #4]
    327a:	3301      	adds	r3, #1
    327c:	607b      	str	r3, [r7, #4]
    327e:	687b      	ldr	r3, [r7, #4]
    3280:	2b24      	cmp	r3, #36	; 0x24
    3282:	d9f2      	bls.n	326a <_switch_peripheral_gclk+0x12>
    3284:	46c0      	nop			; (mov r8, r8)
    3286:	46bd      	mov	sp, r7
    3288:	b002      	add	sp, #8
    328a:	bd80      	pop	{r7, pc}
    328c:	00003839 	.word	0x00003839

00003290 <system_clock_init>:
    3290:	b580      	push	{r7, lr}
    3292:	b0aa      	sub	sp, #168	; 0xa8
    3294:	af00      	add	r7, sp, #0
    3296:	4b87      	ldr	r3, [pc, #540]	; (34b4 <system_clock_init+0x224>)
    3298:	22c2      	movs	r2, #194	; 0xc2
    329a:	00d2      	lsls	r2, r2, #3
    329c:	609a      	str	r2, [r3, #8]
    329e:	2002      	movs	r0, #2
    32a0:	4b85      	ldr	r3, [pc, #532]	; (34b8 <system_clock_init+0x228>)
    32a2:	4798      	blx	r3
    32a4:	4b85      	ldr	r3, [pc, #532]	; (34bc <system_clock_init+0x22c>)
    32a6:	4798      	blx	r3
    32a8:	2394      	movs	r3, #148	; 0x94
    32aa:	18fb      	adds	r3, r7, r3
    32ac:	0018      	movs	r0, r3
    32ae:	4b84      	ldr	r3, [pc, #528]	; (34c0 <system_clock_init+0x230>)
    32b0:	4798      	blx	r3
    32b2:	2394      	movs	r3, #148	; 0x94
    32b4:	18fb      	adds	r3, r7, r3
    32b6:	2280      	movs	r2, #128	; 0x80
    32b8:	0212      	lsls	r2, r2, #8
    32ba:	609a      	str	r2, [r3, #8]
    32bc:	2394      	movs	r3, #148	; 0x94
    32be:	18fb      	adds	r3, r7, r3
    32c0:	2200      	movs	r2, #0
    32c2:	701a      	strb	r2, [r3, #0]
    32c4:	2394      	movs	r3, #148	; 0x94
    32c6:	18fb      	adds	r3, r7, r3
    32c8:	2203      	movs	r2, #3
    32ca:	705a      	strb	r2, [r3, #1]
    32cc:	2394      	movs	r3, #148	; 0x94
    32ce:	18fb      	adds	r3, r7, r3
    32d0:	2200      	movs	r2, #0
    32d2:	709a      	strb	r2, [r3, #2]
    32d4:	2394      	movs	r3, #148	; 0x94
    32d6:	18fb      	adds	r3, r7, r3
    32d8:	2200      	movs	r2, #0
    32da:	70da      	strb	r2, [r3, #3]
    32dc:	2394      	movs	r3, #148	; 0x94
    32de:	18fb      	adds	r3, r7, r3
    32e0:	2201      	movs	r2, #1
    32e2:	711a      	strb	r2, [r3, #4]
    32e4:	2394      	movs	r3, #148	; 0x94
    32e6:	18fb      	adds	r3, r7, r3
    32e8:	2200      	movs	r2, #0
    32ea:	735a      	strb	r2, [r3, #13]
    32ec:	2394      	movs	r3, #148	; 0x94
    32ee:	18fb      	adds	r3, r7, r3
    32f0:	2200      	movs	r2, #0
    32f2:	731a      	strb	r2, [r3, #12]
    32f4:	2394      	movs	r3, #148	; 0x94
    32f6:	18fb      	adds	r3, r7, r3
    32f8:	0018      	movs	r0, r3
    32fa:	4b72      	ldr	r3, [pc, #456]	; (34c4 <system_clock_init+0x234>)
    32fc:	4798      	blx	r3
    32fe:	2005      	movs	r0, #5
    3300:	4b71      	ldr	r3, [pc, #452]	; (34c8 <system_clock_init+0x238>)
    3302:	4798      	blx	r3
    3304:	46c0      	nop			; (mov r8, r8)
    3306:	2005      	movs	r0, #5
    3308:	4b70      	ldr	r3, [pc, #448]	; (34cc <system_clock_init+0x23c>)
    330a:	4798      	blx	r3
    330c:	0003      	movs	r3, r0
    330e:	001a      	movs	r2, r3
    3310:	2301      	movs	r3, #1
    3312:	4053      	eors	r3, r2
    3314:	b2db      	uxtb	r3, r3
    3316:	2b00      	cmp	r3, #0
    3318:	d1f5      	bne.n	3306 <system_clock_init+0x76>
    331a:	4a66      	ldr	r2, [pc, #408]	; (34b4 <system_clock_init+0x224>)
    331c:	8a93      	ldrh	r3, [r2, #20]
    331e:	2180      	movs	r1, #128	; 0x80
    3320:	430b      	orrs	r3, r1
    3322:	8293      	strh	r3, [r2, #20]
    3324:	2380      	movs	r3, #128	; 0x80
    3326:	18fb      	adds	r3, r7, r3
    3328:	0018      	movs	r0, r3
    332a:	4b69      	ldr	r3, [pc, #420]	; (34d0 <system_clock_init+0x240>)
    332c:	4798      	blx	r3
    332e:	2380      	movs	r3, #128	; 0x80
    3330:	18fb      	adds	r3, r7, r3
    3332:	2204      	movs	r2, #4
    3334:	701a      	strb	r2, [r3, #0]
    3336:	2380      	movs	r3, #128	; 0x80
    3338:	18fb      	adds	r3, r7, r3
    333a:	2200      	movs	r2, #0
    333c:	705a      	strb	r2, [r3, #1]
    333e:	4b65      	ldr	r3, [pc, #404]	; (34d4 <system_clock_init+0x244>)
    3340:	681b      	ldr	r3, [r3, #0]
    3342:	0e9b      	lsrs	r3, r3, #26
    3344:	22a4      	movs	r2, #164	; 0xa4
    3346:	18ba      	adds	r2, r7, r2
    3348:	6013      	str	r3, [r2, #0]
    334a:	23a4      	movs	r3, #164	; 0xa4
    334c:	18fb      	adds	r3, r7, r3
    334e:	681b      	ldr	r3, [r3, #0]
    3350:	2b3f      	cmp	r3, #63	; 0x3f
    3352:	d103      	bne.n	335c <system_clock_init+0xcc>
    3354:	231f      	movs	r3, #31
    3356:	22a4      	movs	r2, #164	; 0xa4
    3358:	18ba      	adds	r2, r7, r2
    335a:	6013      	str	r3, [r2, #0]
    335c:	23a4      	movs	r3, #164	; 0xa4
    335e:	18fb      	adds	r3, r7, r3
    3360:	681b      	ldr	r3, [r3, #0]
    3362:	b2da      	uxtb	r2, r3
    3364:	2380      	movs	r3, #128	; 0x80
    3366:	18fb      	adds	r3, r7, r3
    3368:	721a      	strb	r2, [r3, #8]
    336a:	2380      	movs	r3, #128	; 0x80
    336c:	18fb      	adds	r3, r7, r3
    336e:	2200      	movs	r2, #0
    3370:	805a      	strh	r2, [r3, #2]
    3372:	2380      	movs	r3, #128	; 0x80
    3374:	18fb      	adds	r3, r7, r3
    3376:	2200      	movs	r2, #0
    3378:	71da      	strb	r2, [r3, #7]
    337a:	2380      	movs	r3, #128	; 0x80
    337c:	18fb      	adds	r3, r7, r3
    337e:	2200      	movs	r2, #0
    3380:	719a      	strb	r2, [r3, #6]
    3382:	2380      	movs	r3, #128	; 0x80
    3384:	18fb      	adds	r3, r7, r3
    3386:	2200      	movs	r2, #0
    3388:	809a      	strh	r2, [r3, #4]
    338a:	2380      	movs	r3, #128	; 0x80
    338c:	18fb      	adds	r3, r7, r3
    338e:	4a52      	ldr	r2, [pc, #328]	; (34d8 <system_clock_init+0x248>)
    3390:	821a      	strh	r2, [r3, #16]
    3392:	2380      	movs	r3, #128	; 0x80
    3394:	18fb      	adds	r3, r7, r3
    3396:	2207      	movs	r2, #7
    3398:	731a      	strb	r2, [r3, #12]
    339a:	2380      	movs	r3, #128	; 0x80
    339c:	18fb      	adds	r3, r7, r3
    339e:	223f      	movs	r2, #63	; 0x3f
    33a0:	81da      	strh	r2, [r3, #14]
    33a2:	2380      	movs	r3, #128	; 0x80
    33a4:	18fb      	adds	r3, r7, r3
    33a6:	0018      	movs	r0, r3
    33a8:	4b4c      	ldr	r3, [pc, #304]	; (34dc <system_clock_init+0x24c>)
    33aa:	4798      	blx	r3
    33ac:	237c      	movs	r3, #124	; 0x7c
    33ae:	18fb      	adds	r3, r7, r3
    33b0:	0018      	movs	r0, r3
    33b2:	4b4b      	ldr	r3, [pc, #300]	; (34e0 <system_clock_init+0x250>)
    33b4:	4798      	blx	r3
    33b6:	237c      	movs	r3, #124	; 0x7c
    33b8:	18fb      	adds	r3, r7, r3
    33ba:	2200      	movs	r2, #0
    33bc:	701a      	strb	r2, [r3, #0]
    33be:	237c      	movs	r3, #124	; 0x7c
    33c0:	18fb      	adds	r3, r7, r3
    33c2:	2201      	movs	r2, #1
    33c4:	709a      	strb	r2, [r3, #2]
    33c6:	237c      	movs	r3, #124	; 0x7c
    33c8:	18fb      	adds	r3, r7, r3
    33ca:	2200      	movs	r2, #0
    33cc:	705a      	strb	r2, [r3, #1]
    33ce:	237c      	movs	r3, #124	; 0x7c
    33d0:	18fb      	adds	r3, r7, r3
    33d2:	0018      	movs	r0, r3
    33d4:	4b43      	ldr	r3, [pc, #268]	; (34e4 <system_clock_init+0x254>)
    33d6:	4798      	blx	r3
    33d8:	2006      	movs	r0, #6
    33da:	4b3b      	ldr	r3, [pc, #236]	; (34c8 <system_clock_init+0x238>)
    33dc:	4798      	blx	r3
    33de:	4b42      	ldr	r3, [pc, #264]	; (34e8 <system_clock_init+0x258>)
    33e0:	4798      	blx	r3
    33e2:	2364      	movs	r3, #100	; 0x64
    33e4:	18fb      	adds	r3, r7, r3
    33e6:	0018      	movs	r0, r3
    33e8:	4b40      	ldr	r3, [pc, #256]	; (34ec <system_clock_init+0x25c>)
    33ea:	4798      	blx	r3
    33ec:	2364      	movs	r3, #100	; 0x64
    33ee:	18fb      	adds	r3, r7, r3
    33f0:	2205      	movs	r2, #5
    33f2:	701a      	strb	r2, [r3, #0]
    33f4:	2364      	movs	r3, #100	; 0x64
    33f6:	18fb      	adds	r3, r7, r3
    33f8:	2201      	movs	r2, #1
    33fa:	605a      	str	r2, [r3, #4]
    33fc:	2364      	movs	r3, #100	; 0x64
    33fe:	18fb      	adds	r3, r7, r3
    3400:	2200      	movs	r2, #0
    3402:	721a      	strb	r2, [r3, #8]
    3404:	2364      	movs	r3, #100	; 0x64
    3406:	18fb      	adds	r3, r7, r3
    3408:	2200      	movs	r2, #0
    340a:	725a      	strb	r2, [r3, #9]
    340c:	2364      	movs	r3, #100	; 0x64
    340e:	18fb      	adds	r3, r7, r3
    3410:	0019      	movs	r1, r3
    3412:	2001      	movs	r0, #1
    3414:	4b36      	ldr	r3, [pc, #216]	; (34f0 <system_clock_init+0x260>)
    3416:	4798      	blx	r3
    3418:	2001      	movs	r0, #1
    341a:	4b36      	ldr	r3, [pc, #216]	; (34f4 <system_clock_init+0x264>)
    341c:	4798      	blx	r3
    341e:	230c      	movs	r3, #12
    3420:	18fb      	adds	r3, r7, r3
    3422:	0018      	movs	r0, r3
    3424:	4b34      	ldr	r3, [pc, #208]	; (34f8 <system_clock_init+0x268>)
    3426:	4798      	blx	r3
    3428:	230c      	movs	r3, #12
    342a:	18fb      	adds	r3, r7, r3
    342c:	2201      	movs	r2, #1
    342e:	701a      	strb	r2, [r3, #0]
    3430:	230c      	movs	r3, #12
    3432:	18fb      	adds	r3, r7, r3
    3434:	0019      	movs	r1, r3
    3436:	2000      	movs	r0, #0
    3438:	4b30      	ldr	r3, [pc, #192]	; (34fc <system_clock_init+0x26c>)
    343a:	4798      	blx	r3
    343c:	2000      	movs	r0, #0
    343e:	4b30      	ldr	r3, [pc, #192]	; (3500 <system_clock_init+0x270>)
    3440:	4798      	blx	r3
    3442:	2007      	movs	r0, #7
    3444:	4b20      	ldr	r3, [pc, #128]	; (34c8 <system_clock_init+0x238>)
    3446:	4798      	blx	r3
    3448:	46c0      	nop			; (mov r8, r8)
    344a:	2007      	movs	r0, #7
    344c:	4b1f      	ldr	r3, [pc, #124]	; (34cc <system_clock_init+0x23c>)
    344e:	4798      	blx	r3
    3450:	0003      	movs	r3, r0
    3452:	001a      	movs	r2, r3
    3454:	2301      	movs	r3, #1
    3456:	4053      	eors	r3, r2
    3458:	b2db      	uxtb	r3, r3
    345a:	2b00      	cmp	r3, #0
    345c:	d1f5      	bne.n	344a <system_clock_init+0x1ba>
    345e:	2000      	movs	r0, #0
    3460:	4b28      	ldr	r3, [pc, #160]	; (3504 <system_clock_init+0x274>)
    3462:	4798      	blx	r3
    3464:	2100      	movs	r1, #0
    3466:	2000      	movs	r0, #0
    3468:	4b27      	ldr	r3, [pc, #156]	; (3508 <system_clock_init+0x278>)
    346a:	4798      	blx	r3
    346c:	2100      	movs	r1, #0
    346e:	2001      	movs	r0, #1
    3470:	4b25      	ldr	r3, [pc, #148]	; (3508 <system_clock_init+0x278>)
    3472:	4798      	blx	r3
    3474:	2100      	movs	r1, #0
    3476:	2002      	movs	r0, #2
    3478:	4b23      	ldr	r3, [pc, #140]	; (3508 <system_clock_init+0x278>)
    347a:	4798      	blx	r3
    347c:	003b      	movs	r3, r7
    347e:	0018      	movs	r0, r3
    3480:	4b1a      	ldr	r3, [pc, #104]	; (34ec <system_clock_init+0x25c>)
    3482:	4798      	blx	r3
    3484:	003b      	movs	r3, r7
    3486:	2207      	movs	r2, #7
    3488:	701a      	strb	r2, [r3, #0]
    348a:	003b      	movs	r3, r7
    348c:	2201      	movs	r2, #1
    348e:	605a      	str	r2, [r3, #4]
    3490:	003b      	movs	r3, r7
    3492:	2200      	movs	r2, #0
    3494:	721a      	strb	r2, [r3, #8]
    3496:	003b      	movs	r3, r7
    3498:	2200      	movs	r2, #0
    349a:	725a      	strb	r2, [r3, #9]
    349c:	003b      	movs	r3, r7
    349e:	0019      	movs	r1, r3
    34a0:	2000      	movs	r0, #0
    34a2:	4b13      	ldr	r3, [pc, #76]	; (34f0 <system_clock_init+0x260>)
    34a4:	4798      	blx	r3
    34a6:	2000      	movs	r0, #0
    34a8:	4b12      	ldr	r3, [pc, #72]	; (34f4 <system_clock_init+0x264>)
    34aa:	4798      	blx	r3
    34ac:	46c0      	nop			; (mov r8, r8)
    34ae:	46bd      	mov	sp, r7
    34b0:	b02a      	add	sp, #168	; 0xa8
    34b2:	bd80      	pop	{r7, pc}
    34b4:	40000800 	.word	0x40000800
    34b8:	00002d6d 	.word	0x00002d6d
    34bc:	00003259 	.word	0x00003259
    34c0:	00002c3d 	.word	0x00002c3d
    34c4:	00002f39 	.word	0x00002f39
    34c8:	00003129 	.word	0x00003129
    34cc:	000031d5 	.word	0x000031d5
    34d0:	00002ca7 	.word	0x00002ca7
    34d4:	00806024 	.word	0x00806024
    34d8:	000005b9 	.word	0x000005b9
    34dc:	00003059 	.word	0x00003059
    34e0:	00002c85 	.word	0x00002c85
    34e4:	00002ec1 	.word	0x00002ec1
    34e8:	000035b1 	.word	0x000035b1
    34ec:	00002bf9 	.word	0x00002bf9
    34f0:	000035e1 	.word	0x000035e1
    34f4:	00003705 	.word	0x00003705
    34f8:	00002c27 	.word	0x00002c27
    34fc:	00003839 	.word	0x00003839
    3500:	0000387d 	.word	0x0000387d
    3504:	00002cf9 	.word	0x00002cf9
    3508:	00002d19 	.word	0x00002d19

0000350c <system_apb_clock_set_mask>:
    350c:	b580      	push	{r7, lr}
    350e:	b082      	sub	sp, #8
    3510:	af00      	add	r7, sp, #0
    3512:	0002      	movs	r2, r0
    3514:	6039      	str	r1, [r7, #0]
    3516:	1dfb      	adds	r3, r7, #7
    3518:	701a      	strb	r2, [r3, #0]
    351a:	1dfb      	adds	r3, r7, #7
    351c:	781b      	ldrb	r3, [r3, #0]
    351e:	2b01      	cmp	r3, #1
    3520:	d00a      	beq.n	3538 <system_apb_clock_set_mask+0x2c>
    3522:	2b02      	cmp	r3, #2
    3524:	d00f      	beq.n	3546 <system_apb_clock_set_mask+0x3a>
    3526:	2b00      	cmp	r3, #0
    3528:	d114      	bne.n	3554 <system_apb_clock_set_mask+0x48>
    352a:	4b0e      	ldr	r3, [pc, #56]	; (3564 <system_apb_clock_set_mask+0x58>)
    352c:	4a0d      	ldr	r2, [pc, #52]	; (3564 <system_apb_clock_set_mask+0x58>)
    352e:	6991      	ldr	r1, [r2, #24]
    3530:	683a      	ldr	r2, [r7, #0]
    3532:	430a      	orrs	r2, r1
    3534:	619a      	str	r2, [r3, #24]
    3536:	e00f      	b.n	3558 <system_apb_clock_set_mask+0x4c>
    3538:	4b0a      	ldr	r3, [pc, #40]	; (3564 <system_apb_clock_set_mask+0x58>)
    353a:	4a0a      	ldr	r2, [pc, #40]	; (3564 <system_apb_clock_set_mask+0x58>)
    353c:	69d1      	ldr	r1, [r2, #28]
    353e:	683a      	ldr	r2, [r7, #0]
    3540:	430a      	orrs	r2, r1
    3542:	61da      	str	r2, [r3, #28]
    3544:	e008      	b.n	3558 <system_apb_clock_set_mask+0x4c>
    3546:	4b07      	ldr	r3, [pc, #28]	; (3564 <system_apb_clock_set_mask+0x58>)
    3548:	4a06      	ldr	r2, [pc, #24]	; (3564 <system_apb_clock_set_mask+0x58>)
    354a:	6a11      	ldr	r1, [r2, #32]
    354c:	683a      	ldr	r2, [r7, #0]
    354e:	430a      	orrs	r2, r1
    3550:	621a      	str	r2, [r3, #32]
    3552:	e001      	b.n	3558 <system_apb_clock_set_mask+0x4c>
    3554:	2317      	movs	r3, #23
    3556:	e000      	b.n	355a <system_apb_clock_set_mask+0x4e>
    3558:	2300      	movs	r3, #0
    355a:	0018      	movs	r0, r3
    355c:	46bd      	mov	sp, r7
    355e:	b002      	add	sp, #8
    3560:	bd80      	pop	{r7, pc}
    3562:	46c0      	nop			; (mov r8, r8)
    3564:	40000400 	.word	0x40000400

00003568 <system_interrupt_enter_critical_section>:
    3568:	b580      	push	{r7, lr}
    356a:	af00      	add	r7, sp, #0
    356c:	4b02      	ldr	r3, [pc, #8]	; (3578 <system_interrupt_enter_critical_section+0x10>)
    356e:	4798      	blx	r3
    3570:	46c0      	nop			; (mov r8, r8)
    3572:	46bd      	mov	sp, r7
    3574:	bd80      	pop	{r7, pc}
    3576:	46c0      	nop			; (mov r8, r8)
    3578:	00002991 	.word	0x00002991

0000357c <system_interrupt_leave_critical_section>:
    357c:	b580      	push	{r7, lr}
    357e:	af00      	add	r7, sp, #0
    3580:	4b02      	ldr	r3, [pc, #8]	; (358c <system_interrupt_leave_critical_section+0x10>)
    3582:	4798      	blx	r3
    3584:	46c0      	nop			; (mov r8, r8)
    3586:	46bd      	mov	sp, r7
    3588:	bd80      	pop	{r7, pc}
    358a:	46c0      	nop			; (mov r8, r8)
    358c:	000029e5 	.word	0x000029e5

00003590 <system_gclk_is_syncing>:
    3590:	b580      	push	{r7, lr}
    3592:	af00      	add	r7, sp, #0
    3594:	4b05      	ldr	r3, [pc, #20]	; (35ac <system_gclk_is_syncing+0x1c>)
    3596:	785b      	ldrb	r3, [r3, #1]
    3598:	b2db      	uxtb	r3, r3
    359a:	b25b      	sxtb	r3, r3
    359c:	2b00      	cmp	r3, #0
    359e:	da01      	bge.n	35a4 <system_gclk_is_syncing+0x14>
    35a0:	2301      	movs	r3, #1
    35a2:	e000      	b.n	35a6 <system_gclk_is_syncing+0x16>
    35a4:	2300      	movs	r3, #0
    35a6:	0018      	movs	r0, r3
    35a8:	46bd      	mov	sp, r7
    35aa:	bd80      	pop	{r7, pc}
    35ac:	40000c00 	.word	0x40000c00

000035b0 <system_gclk_init>:
    35b0:	b580      	push	{r7, lr}
    35b2:	af00      	add	r7, sp, #0
    35b4:	2108      	movs	r1, #8
    35b6:	2000      	movs	r0, #0
    35b8:	4b07      	ldr	r3, [pc, #28]	; (35d8 <system_gclk_init+0x28>)
    35ba:	4798      	blx	r3
    35bc:	4b07      	ldr	r3, [pc, #28]	; (35dc <system_gclk_init+0x2c>)
    35be:	2201      	movs	r2, #1
    35c0:	701a      	strb	r2, [r3, #0]
    35c2:	46c0      	nop			; (mov r8, r8)
    35c4:	4b05      	ldr	r3, [pc, #20]	; (35dc <system_gclk_init+0x2c>)
    35c6:	781b      	ldrb	r3, [r3, #0]
    35c8:	b2db      	uxtb	r3, r3
    35ca:	001a      	movs	r2, r3
    35cc:	2301      	movs	r3, #1
    35ce:	4013      	ands	r3, r2
    35d0:	d1f8      	bne.n	35c4 <system_gclk_init+0x14>
    35d2:	46c0      	nop			; (mov r8, r8)
    35d4:	46bd      	mov	sp, r7
    35d6:	bd80      	pop	{r7, pc}
    35d8:	0000350d 	.word	0x0000350d
    35dc:	40000c00 	.word	0x40000c00

000035e0 <system_gclk_gen_set_config>:
    35e0:	b580      	push	{r7, lr}
    35e2:	b086      	sub	sp, #24
    35e4:	af00      	add	r7, sp, #0
    35e6:	0002      	movs	r2, r0
    35e8:	6039      	str	r1, [r7, #0]
    35ea:	1dfb      	adds	r3, r7, #7
    35ec:	701a      	strb	r2, [r3, #0]
    35ee:	1dfb      	adds	r3, r7, #7
    35f0:	781b      	ldrb	r3, [r3, #0]
    35f2:	617b      	str	r3, [r7, #20]
    35f4:	1dfb      	adds	r3, r7, #7
    35f6:	781b      	ldrb	r3, [r3, #0]
    35f8:	613b      	str	r3, [r7, #16]
    35fa:	683b      	ldr	r3, [r7, #0]
    35fc:	781b      	ldrb	r3, [r3, #0]
    35fe:	021b      	lsls	r3, r3, #8
    3600:	001a      	movs	r2, r3
    3602:	697b      	ldr	r3, [r7, #20]
    3604:	4313      	orrs	r3, r2
    3606:	617b      	str	r3, [r7, #20]
    3608:	683b      	ldr	r3, [r7, #0]
    360a:	785b      	ldrb	r3, [r3, #1]
    360c:	2b00      	cmp	r3, #0
    360e:	d004      	beq.n	361a <system_gclk_gen_set_config+0x3a>
    3610:	697b      	ldr	r3, [r7, #20]
    3612:	2280      	movs	r2, #128	; 0x80
    3614:	02d2      	lsls	r2, r2, #11
    3616:	4313      	orrs	r3, r2
    3618:	617b      	str	r3, [r7, #20]
    361a:	683b      	ldr	r3, [r7, #0]
    361c:	7a5b      	ldrb	r3, [r3, #9]
    361e:	2b00      	cmp	r3, #0
    3620:	d004      	beq.n	362c <system_gclk_gen_set_config+0x4c>
    3622:	697b      	ldr	r3, [r7, #20]
    3624:	2280      	movs	r2, #128	; 0x80
    3626:	0312      	lsls	r2, r2, #12
    3628:	4313      	orrs	r3, r2
    362a:	617b      	str	r3, [r7, #20]
    362c:	683b      	ldr	r3, [r7, #0]
    362e:	685b      	ldr	r3, [r3, #4]
    3630:	2b01      	cmp	r3, #1
    3632:	d92c      	bls.n	368e <system_gclk_gen_set_config+0xae>
    3634:	683b      	ldr	r3, [r7, #0]
    3636:	685a      	ldr	r2, [r3, #4]
    3638:	683b      	ldr	r3, [r7, #0]
    363a:	685b      	ldr	r3, [r3, #4]
    363c:	3b01      	subs	r3, #1
    363e:	4013      	ands	r3, r2
    3640:	d11a      	bne.n	3678 <system_gclk_gen_set_config+0x98>
    3642:	2300      	movs	r3, #0
    3644:	60fb      	str	r3, [r7, #12]
    3646:	2302      	movs	r3, #2
    3648:	60bb      	str	r3, [r7, #8]
    364a:	e005      	b.n	3658 <system_gclk_gen_set_config+0x78>
    364c:	68fb      	ldr	r3, [r7, #12]
    364e:	3301      	adds	r3, #1
    3650:	60fb      	str	r3, [r7, #12]
    3652:	68bb      	ldr	r3, [r7, #8]
    3654:	005b      	lsls	r3, r3, #1
    3656:	60bb      	str	r3, [r7, #8]
    3658:	683b      	ldr	r3, [r7, #0]
    365a:	685a      	ldr	r2, [r3, #4]
    365c:	68bb      	ldr	r3, [r7, #8]
    365e:	429a      	cmp	r2, r3
    3660:	d8f4      	bhi.n	364c <system_gclk_gen_set_config+0x6c>
    3662:	68fb      	ldr	r3, [r7, #12]
    3664:	021b      	lsls	r3, r3, #8
    3666:	693a      	ldr	r2, [r7, #16]
    3668:	4313      	orrs	r3, r2
    366a:	613b      	str	r3, [r7, #16]
    366c:	697b      	ldr	r3, [r7, #20]
    366e:	2280      	movs	r2, #128	; 0x80
    3670:	0352      	lsls	r2, r2, #13
    3672:	4313      	orrs	r3, r2
    3674:	617b      	str	r3, [r7, #20]
    3676:	e00a      	b.n	368e <system_gclk_gen_set_config+0xae>
    3678:	683b      	ldr	r3, [r7, #0]
    367a:	685b      	ldr	r3, [r3, #4]
    367c:	021b      	lsls	r3, r3, #8
    367e:	693a      	ldr	r2, [r7, #16]
    3680:	4313      	orrs	r3, r2
    3682:	613b      	str	r3, [r7, #16]
    3684:	697b      	ldr	r3, [r7, #20]
    3686:	2280      	movs	r2, #128	; 0x80
    3688:	0292      	lsls	r2, r2, #10
    368a:	4313      	orrs	r3, r2
    368c:	617b      	str	r3, [r7, #20]
    368e:	683b      	ldr	r3, [r7, #0]
    3690:	7a1b      	ldrb	r3, [r3, #8]
    3692:	2b00      	cmp	r3, #0
    3694:	d004      	beq.n	36a0 <system_gclk_gen_set_config+0xc0>
    3696:	697b      	ldr	r3, [r7, #20]
    3698:	2280      	movs	r2, #128	; 0x80
    369a:	0392      	lsls	r2, r2, #14
    369c:	4313      	orrs	r3, r2
    369e:	617b      	str	r3, [r7, #20]
    36a0:	46c0      	nop			; (mov r8, r8)
    36a2:	4b13      	ldr	r3, [pc, #76]	; (36f0 <system_gclk_gen_set_config+0x110>)
    36a4:	4798      	blx	r3
    36a6:	1e03      	subs	r3, r0, #0
    36a8:	d1fb      	bne.n	36a2 <system_gclk_gen_set_config+0xc2>
    36aa:	4b12      	ldr	r3, [pc, #72]	; (36f4 <system_gclk_gen_set_config+0x114>)
    36ac:	4798      	blx	r3
    36ae:	4a12      	ldr	r2, [pc, #72]	; (36f8 <system_gclk_gen_set_config+0x118>)
    36b0:	1dfb      	adds	r3, r7, #7
    36b2:	781b      	ldrb	r3, [r3, #0]
    36b4:	7013      	strb	r3, [r2, #0]
    36b6:	46c0      	nop			; (mov r8, r8)
    36b8:	4b0d      	ldr	r3, [pc, #52]	; (36f0 <system_gclk_gen_set_config+0x110>)
    36ba:	4798      	blx	r3
    36bc:	1e03      	subs	r3, r0, #0
    36be:	d1fb      	bne.n	36b8 <system_gclk_gen_set_config+0xd8>
    36c0:	4b0e      	ldr	r3, [pc, #56]	; (36fc <system_gclk_gen_set_config+0x11c>)
    36c2:	693a      	ldr	r2, [r7, #16]
    36c4:	609a      	str	r2, [r3, #8]
    36c6:	46c0      	nop			; (mov r8, r8)
    36c8:	4b09      	ldr	r3, [pc, #36]	; (36f0 <system_gclk_gen_set_config+0x110>)
    36ca:	4798      	blx	r3
    36cc:	1e03      	subs	r3, r0, #0
    36ce:	d1fb      	bne.n	36c8 <system_gclk_gen_set_config+0xe8>
    36d0:	4b0a      	ldr	r3, [pc, #40]	; (36fc <system_gclk_gen_set_config+0x11c>)
    36d2:	4a0a      	ldr	r2, [pc, #40]	; (36fc <system_gclk_gen_set_config+0x11c>)
    36d4:	6851      	ldr	r1, [r2, #4]
    36d6:	2280      	movs	r2, #128	; 0x80
    36d8:	0252      	lsls	r2, r2, #9
    36da:	4011      	ands	r1, r2
    36dc:	697a      	ldr	r2, [r7, #20]
    36de:	430a      	orrs	r2, r1
    36e0:	605a      	str	r2, [r3, #4]
    36e2:	4b07      	ldr	r3, [pc, #28]	; (3700 <system_gclk_gen_set_config+0x120>)
    36e4:	4798      	blx	r3
    36e6:	46c0      	nop			; (mov r8, r8)
    36e8:	46bd      	mov	sp, r7
    36ea:	b006      	add	sp, #24
    36ec:	bd80      	pop	{r7, pc}
    36ee:	46c0      	nop			; (mov r8, r8)
    36f0:	00003591 	.word	0x00003591
    36f4:	00003569 	.word	0x00003569
    36f8:	40000c08 	.word	0x40000c08
    36fc:	40000c00 	.word	0x40000c00
    3700:	0000357d 	.word	0x0000357d

00003704 <system_gclk_gen_enable>:
    3704:	b580      	push	{r7, lr}
    3706:	b082      	sub	sp, #8
    3708:	af00      	add	r7, sp, #0
    370a:	0002      	movs	r2, r0
    370c:	1dfb      	adds	r3, r7, #7
    370e:	701a      	strb	r2, [r3, #0]
    3710:	46c0      	nop			; (mov r8, r8)
    3712:	4b0e      	ldr	r3, [pc, #56]	; (374c <system_gclk_gen_enable+0x48>)
    3714:	4798      	blx	r3
    3716:	1e03      	subs	r3, r0, #0
    3718:	d1fb      	bne.n	3712 <system_gclk_gen_enable+0xe>
    371a:	4b0d      	ldr	r3, [pc, #52]	; (3750 <system_gclk_gen_enable+0x4c>)
    371c:	4798      	blx	r3
    371e:	4a0d      	ldr	r2, [pc, #52]	; (3754 <system_gclk_gen_enable+0x50>)
    3720:	1dfb      	adds	r3, r7, #7
    3722:	781b      	ldrb	r3, [r3, #0]
    3724:	7013      	strb	r3, [r2, #0]
    3726:	46c0      	nop			; (mov r8, r8)
    3728:	4b08      	ldr	r3, [pc, #32]	; (374c <system_gclk_gen_enable+0x48>)
    372a:	4798      	blx	r3
    372c:	1e03      	subs	r3, r0, #0
    372e:	d1fb      	bne.n	3728 <system_gclk_gen_enable+0x24>
    3730:	4b09      	ldr	r3, [pc, #36]	; (3758 <system_gclk_gen_enable+0x54>)
    3732:	4a09      	ldr	r2, [pc, #36]	; (3758 <system_gclk_gen_enable+0x54>)
    3734:	6852      	ldr	r2, [r2, #4]
    3736:	2180      	movs	r1, #128	; 0x80
    3738:	0249      	lsls	r1, r1, #9
    373a:	430a      	orrs	r2, r1
    373c:	605a      	str	r2, [r3, #4]
    373e:	4b07      	ldr	r3, [pc, #28]	; (375c <system_gclk_gen_enable+0x58>)
    3740:	4798      	blx	r3
    3742:	46c0      	nop			; (mov r8, r8)
    3744:	46bd      	mov	sp, r7
    3746:	b002      	add	sp, #8
    3748:	bd80      	pop	{r7, pc}
    374a:	46c0      	nop			; (mov r8, r8)
    374c:	00003591 	.word	0x00003591
    3750:	00003569 	.word	0x00003569
    3754:	40000c04 	.word	0x40000c04
    3758:	40000c00 	.word	0x40000c00
    375c:	0000357d 	.word	0x0000357d

00003760 <system_gclk_gen_get_hz>:
    3760:	b580      	push	{r7, lr}
    3762:	b086      	sub	sp, #24
    3764:	af00      	add	r7, sp, #0
    3766:	0002      	movs	r2, r0
    3768:	1dfb      	adds	r3, r7, #7
    376a:	701a      	strb	r2, [r3, #0]
    376c:	46c0      	nop			; (mov r8, r8)
    376e:	4b2a      	ldr	r3, [pc, #168]	; (3818 <system_gclk_gen_get_hz+0xb8>)
    3770:	4798      	blx	r3
    3772:	1e03      	subs	r3, r0, #0
    3774:	d1fb      	bne.n	376e <system_gclk_gen_get_hz+0xe>
    3776:	4b29      	ldr	r3, [pc, #164]	; (381c <system_gclk_gen_get_hz+0xbc>)
    3778:	4798      	blx	r3
    377a:	4a29      	ldr	r2, [pc, #164]	; (3820 <system_gclk_gen_get_hz+0xc0>)
    377c:	1dfb      	adds	r3, r7, #7
    377e:	781b      	ldrb	r3, [r3, #0]
    3780:	7013      	strb	r3, [r2, #0]
    3782:	46c0      	nop			; (mov r8, r8)
    3784:	4b24      	ldr	r3, [pc, #144]	; (3818 <system_gclk_gen_get_hz+0xb8>)
    3786:	4798      	blx	r3
    3788:	1e03      	subs	r3, r0, #0
    378a:	d1fb      	bne.n	3784 <system_gclk_gen_get_hz+0x24>
    378c:	4b25      	ldr	r3, [pc, #148]	; (3824 <system_gclk_gen_get_hz+0xc4>)
    378e:	685b      	ldr	r3, [r3, #4]
    3790:	04db      	lsls	r3, r3, #19
    3792:	0edb      	lsrs	r3, r3, #27
    3794:	b2db      	uxtb	r3, r3
    3796:	0018      	movs	r0, r3
    3798:	4b23      	ldr	r3, [pc, #140]	; (3828 <system_gclk_gen_get_hz+0xc8>)
    379a:	4798      	blx	r3
    379c:	0003      	movs	r3, r0
    379e:	617b      	str	r3, [r7, #20]
    37a0:	4a1f      	ldr	r2, [pc, #124]	; (3820 <system_gclk_gen_get_hz+0xc0>)
    37a2:	1dfb      	adds	r3, r7, #7
    37a4:	781b      	ldrb	r3, [r3, #0]
    37a6:	7013      	strb	r3, [r2, #0]
    37a8:	4b1e      	ldr	r3, [pc, #120]	; (3824 <system_gclk_gen_get_hz+0xc4>)
    37aa:	685b      	ldr	r3, [r3, #4]
    37ac:	02db      	lsls	r3, r3, #11
    37ae:	0fdb      	lsrs	r3, r3, #31
    37b0:	b2da      	uxtb	r2, r3
    37b2:	2313      	movs	r3, #19
    37b4:	18fb      	adds	r3, r7, r3
    37b6:	701a      	strb	r2, [r3, #0]
    37b8:	4a1c      	ldr	r2, [pc, #112]	; (382c <system_gclk_gen_get_hz+0xcc>)
    37ba:	1dfb      	adds	r3, r7, #7
    37bc:	781b      	ldrb	r3, [r3, #0]
    37be:	7013      	strb	r3, [r2, #0]
    37c0:	46c0      	nop			; (mov r8, r8)
    37c2:	4b15      	ldr	r3, [pc, #84]	; (3818 <system_gclk_gen_get_hz+0xb8>)
    37c4:	4798      	blx	r3
    37c6:	1e03      	subs	r3, r0, #0
    37c8:	d1fb      	bne.n	37c2 <system_gclk_gen_get_hz+0x62>
    37ca:	4b16      	ldr	r3, [pc, #88]	; (3824 <system_gclk_gen_get_hz+0xc4>)
    37cc:	689b      	ldr	r3, [r3, #8]
    37ce:	021b      	lsls	r3, r3, #8
    37d0:	0c1b      	lsrs	r3, r3, #16
    37d2:	b29b      	uxth	r3, r3
    37d4:	60fb      	str	r3, [r7, #12]
    37d6:	4b16      	ldr	r3, [pc, #88]	; (3830 <system_gclk_gen_get_hz+0xd0>)
    37d8:	4798      	blx	r3
    37da:	2313      	movs	r3, #19
    37dc:	18fb      	adds	r3, r7, r3
    37de:	781b      	ldrb	r3, [r3, #0]
    37e0:	2b00      	cmp	r3, #0
    37e2:	d109      	bne.n	37f8 <system_gclk_gen_get_hz+0x98>
    37e4:	68fb      	ldr	r3, [r7, #12]
    37e6:	2b01      	cmp	r3, #1
    37e8:	d906      	bls.n	37f8 <system_gclk_gen_get_hz+0x98>
    37ea:	4b12      	ldr	r3, [pc, #72]	; (3834 <system_gclk_gen_get_hz+0xd4>)
    37ec:	68f9      	ldr	r1, [r7, #12]
    37ee:	6978      	ldr	r0, [r7, #20]
    37f0:	4798      	blx	r3
    37f2:	0003      	movs	r3, r0
    37f4:	617b      	str	r3, [r7, #20]
    37f6:	e00a      	b.n	380e <system_gclk_gen_get_hz+0xae>
    37f8:	2313      	movs	r3, #19
    37fa:	18fb      	adds	r3, r7, r3
    37fc:	781b      	ldrb	r3, [r3, #0]
    37fe:	2b00      	cmp	r3, #0
    3800:	d005      	beq.n	380e <system_gclk_gen_get_hz+0xae>
    3802:	68fb      	ldr	r3, [r7, #12]
    3804:	3301      	adds	r3, #1
    3806:	697a      	ldr	r2, [r7, #20]
    3808:	40da      	lsrs	r2, r3
    380a:	0013      	movs	r3, r2
    380c:	617b      	str	r3, [r7, #20]
    380e:	697b      	ldr	r3, [r7, #20]
    3810:	0018      	movs	r0, r3
    3812:	46bd      	mov	sp, r7
    3814:	b006      	add	sp, #24
    3816:	bd80      	pop	{r7, pc}
    3818:	00003591 	.word	0x00003591
    381c:	00003569 	.word	0x00003569
    3820:	40000c04 	.word	0x40000c04
    3824:	40000c00 	.word	0x40000c00
    3828:	00002e01 	.word	0x00002e01
    382c:	40000c08 	.word	0x40000c08
    3830:	0000357d 	.word	0x0000357d
    3834:	00003fe9 	.word	0x00003fe9

00003838 <system_gclk_chan_set_config>:
    3838:	b580      	push	{r7, lr}
    383a:	b084      	sub	sp, #16
    383c:	af00      	add	r7, sp, #0
    383e:	0002      	movs	r2, r0
    3840:	6039      	str	r1, [r7, #0]
    3842:	1dfb      	adds	r3, r7, #7
    3844:	701a      	strb	r2, [r3, #0]
    3846:	1dfb      	adds	r3, r7, #7
    3848:	781b      	ldrb	r3, [r3, #0]
    384a:	60fb      	str	r3, [r7, #12]
    384c:	683b      	ldr	r3, [r7, #0]
    384e:	781b      	ldrb	r3, [r3, #0]
    3850:	021b      	lsls	r3, r3, #8
    3852:	001a      	movs	r2, r3
    3854:	68fb      	ldr	r3, [r7, #12]
    3856:	4313      	orrs	r3, r2
    3858:	60fb      	str	r3, [r7, #12]
    385a:	1dfb      	adds	r3, r7, #7
    385c:	781b      	ldrb	r3, [r3, #0]
    385e:	0018      	movs	r0, r3
    3860:	4b04      	ldr	r3, [pc, #16]	; (3874 <system_gclk_chan_set_config+0x3c>)
    3862:	4798      	blx	r3
    3864:	4b04      	ldr	r3, [pc, #16]	; (3878 <system_gclk_chan_set_config+0x40>)
    3866:	68fa      	ldr	r2, [r7, #12]
    3868:	b292      	uxth	r2, r2
    386a:	805a      	strh	r2, [r3, #2]
    386c:	46c0      	nop			; (mov r8, r8)
    386e:	46bd      	mov	sp, r7
    3870:	b004      	add	sp, #16
    3872:	bd80      	pop	{r7, pc}
    3874:	000038c5 	.word	0x000038c5
    3878:	40000c00 	.word	0x40000c00

0000387c <system_gclk_chan_enable>:
    387c:	b580      	push	{r7, lr}
    387e:	b082      	sub	sp, #8
    3880:	af00      	add	r7, sp, #0
    3882:	0002      	movs	r2, r0
    3884:	1dfb      	adds	r3, r7, #7
    3886:	701a      	strb	r2, [r3, #0]
    3888:	4b0a      	ldr	r3, [pc, #40]	; (38b4 <system_gclk_chan_enable+0x38>)
    388a:	4798      	blx	r3
    388c:	4a0a      	ldr	r2, [pc, #40]	; (38b8 <system_gclk_chan_enable+0x3c>)
    388e:	1dfb      	adds	r3, r7, #7
    3890:	781b      	ldrb	r3, [r3, #0]
    3892:	7013      	strb	r3, [r2, #0]
    3894:	4909      	ldr	r1, [pc, #36]	; (38bc <system_gclk_chan_enable+0x40>)
    3896:	4b09      	ldr	r3, [pc, #36]	; (38bc <system_gclk_chan_enable+0x40>)
    3898:	885b      	ldrh	r3, [r3, #2]
    389a:	b29b      	uxth	r3, r3
    389c:	2280      	movs	r2, #128	; 0x80
    389e:	01d2      	lsls	r2, r2, #7
    38a0:	4313      	orrs	r3, r2
    38a2:	b29b      	uxth	r3, r3
    38a4:	804b      	strh	r3, [r1, #2]
    38a6:	4b06      	ldr	r3, [pc, #24]	; (38c0 <system_gclk_chan_enable+0x44>)
    38a8:	4798      	blx	r3
    38aa:	46c0      	nop			; (mov r8, r8)
    38ac:	46bd      	mov	sp, r7
    38ae:	b002      	add	sp, #8
    38b0:	bd80      	pop	{r7, pc}
    38b2:	46c0      	nop			; (mov r8, r8)
    38b4:	00003569 	.word	0x00003569
    38b8:	40000c02 	.word	0x40000c02
    38bc:	40000c00 	.word	0x40000c00
    38c0:	0000357d 	.word	0x0000357d

000038c4 <system_gclk_chan_disable>:
    38c4:	b580      	push	{r7, lr}
    38c6:	b084      	sub	sp, #16
    38c8:	af00      	add	r7, sp, #0
    38ca:	0002      	movs	r2, r0
    38cc:	1dfb      	adds	r3, r7, #7
    38ce:	701a      	strb	r2, [r3, #0]
    38d0:	4b1c      	ldr	r3, [pc, #112]	; (3944 <system_gclk_chan_disable+0x80>)
    38d2:	4798      	blx	r3
    38d4:	4a1c      	ldr	r2, [pc, #112]	; (3948 <system_gclk_chan_disable+0x84>)
    38d6:	1dfb      	adds	r3, r7, #7
    38d8:	781b      	ldrb	r3, [r3, #0]
    38da:	7013      	strb	r3, [r2, #0]
    38dc:	4b1b      	ldr	r3, [pc, #108]	; (394c <system_gclk_chan_disable+0x88>)
    38de:	885b      	ldrh	r3, [r3, #2]
    38e0:	051b      	lsls	r3, r3, #20
    38e2:	0f1b      	lsrs	r3, r3, #28
    38e4:	b2db      	uxtb	r3, r3
    38e6:	60fb      	str	r3, [r7, #12]
    38e8:	4a18      	ldr	r2, [pc, #96]	; (394c <system_gclk_chan_disable+0x88>)
    38ea:	8853      	ldrh	r3, [r2, #2]
    38ec:	4918      	ldr	r1, [pc, #96]	; (3950 <system_gclk_chan_disable+0x8c>)
    38ee:	400b      	ands	r3, r1
    38f0:	8053      	strh	r3, [r2, #2]
    38f2:	4a16      	ldr	r2, [pc, #88]	; (394c <system_gclk_chan_disable+0x88>)
    38f4:	4b15      	ldr	r3, [pc, #84]	; (394c <system_gclk_chan_disable+0x88>)
    38f6:	885b      	ldrh	r3, [r3, #2]
    38f8:	b29b      	uxth	r3, r3
    38fa:	4916      	ldr	r1, [pc, #88]	; (3954 <system_gclk_chan_disable+0x90>)
    38fc:	400b      	ands	r3, r1
    38fe:	b29b      	uxth	r3, r3
    3900:	8053      	strh	r3, [r2, #2]
    3902:	46c0      	nop			; (mov r8, r8)
    3904:	4b11      	ldr	r3, [pc, #68]	; (394c <system_gclk_chan_disable+0x88>)
    3906:	885b      	ldrh	r3, [r3, #2]
    3908:	b29b      	uxth	r3, r3
    390a:	001a      	movs	r2, r3
    390c:	2380      	movs	r3, #128	; 0x80
    390e:	01db      	lsls	r3, r3, #7
    3910:	4013      	ands	r3, r2
    3912:	d1f7      	bne.n	3904 <system_gclk_chan_disable+0x40>
    3914:	4a0d      	ldr	r2, [pc, #52]	; (394c <system_gclk_chan_disable+0x88>)
    3916:	68fb      	ldr	r3, [r7, #12]
    3918:	b2db      	uxtb	r3, r3
    391a:	1c19      	adds	r1, r3, #0
    391c:	230f      	movs	r3, #15
    391e:	400b      	ands	r3, r1
    3920:	b2d9      	uxtb	r1, r3
    3922:	8853      	ldrh	r3, [r2, #2]
    3924:	1c08      	adds	r0, r1, #0
    3926:	210f      	movs	r1, #15
    3928:	4001      	ands	r1, r0
    392a:	0208      	lsls	r0, r1, #8
    392c:	4908      	ldr	r1, [pc, #32]	; (3950 <system_gclk_chan_disable+0x8c>)
    392e:	400b      	ands	r3, r1
    3930:	1c19      	adds	r1, r3, #0
    3932:	1c03      	adds	r3, r0, #0
    3934:	430b      	orrs	r3, r1
    3936:	8053      	strh	r3, [r2, #2]
    3938:	4b07      	ldr	r3, [pc, #28]	; (3958 <system_gclk_chan_disable+0x94>)
    393a:	4798      	blx	r3
    393c:	46c0      	nop			; (mov r8, r8)
    393e:	46bd      	mov	sp, r7
    3940:	b004      	add	sp, #16
    3942:	bd80      	pop	{r7, pc}
    3944:	00003569 	.word	0x00003569
    3948:	40000c02 	.word	0x40000c02
    394c:	40000c00 	.word	0x40000c00
    3950:	fffff0ff 	.word	0xfffff0ff
    3954:	ffffbfff 	.word	0xffffbfff
    3958:	0000357d 	.word	0x0000357d

0000395c <system_gclk_chan_get_hz>:
    395c:	b580      	push	{r7, lr}
    395e:	b084      	sub	sp, #16
    3960:	af00      	add	r7, sp, #0
    3962:	0002      	movs	r2, r0
    3964:	1dfb      	adds	r3, r7, #7
    3966:	701a      	strb	r2, [r3, #0]
    3968:	4b0d      	ldr	r3, [pc, #52]	; (39a0 <system_gclk_chan_get_hz+0x44>)
    396a:	4798      	blx	r3
    396c:	4a0d      	ldr	r2, [pc, #52]	; (39a4 <system_gclk_chan_get_hz+0x48>)
    396e:	1dfb      	adds	r3, r7, #7
    3970:	781b      	ldrb	r3, [r3, #0]
    3972:	7013      	strb	r3, [r2, #0]
    3974:	4b0c      	ldr	r3, [pc, #48]	; (39a8 <system_gclk_chan_get_hz+0x4c>)
    3976:	885b      	ldrh	r3, [r3, #2]
    3978:	051b      	lsls	r3, r3, #20
    397a:	0f1b      	lsrs	r3, r3, #28
    397c:	b2da      	uxtb	r2, r3
    397e:	230f      	movs	r3, #15
    3980:	18fb      	adds	r3, r7, r3
    3982:	701a      	strb	r2, [r3, #0]
    3984:	4b09      	ldr	r3, [pc, #36]	; (39ac <system_gclk_chan_get_hz+0x50>)
    3986:	4798      	blx	r3
    3988:	230f      	movs	r3, #15
    398a:	18fb      	adds	r3, r7, r3
    398c:	781b      	ldrb	r3, [r3, #0]
    398e:	0018      	movs	r0, r3
    3990:	4b07      	ldr	r3, [pc, #28]	; (39b0 <system_gclk_chan_get_hz+0x54>)
    3992:	4798      	blx	r3
    3994:	0003      	movs	r3, r0
    3996:	0018      	movs	r0, r3
    3998:	46bd      	mov	sp, r7
    399a:	b004      	add	sp, #16
    399c:	bd80      	pop	{r7, pc}
    399e:	46c0      	nop			; (mov r8, r8)
    39a0:	00003569 	.word	0x00003569
    39a4:	40000c02 	.word	0x40000c02
    39a8:	40000c00 	.word	0x40000c00
    39ac:	0000357d 	.word	0x0000357d
    39b0:	00003761 	.word	0x00003761

000039b4 <system_pinmux_get_group_from_gpio_pin>:
    39b4:	b580      	push	{r7, lr}
    39b6:	b084      	sub	sp, #16
    39b8:	af00      	add	r7, sp, #0
    39ba:	0002      	movs	r2, r0
    39bc:	1dfb      	adds	r3, r7, #7
    39be:	701a      	strb	r2, [r3, #0]
    39c0:	230f      	movs	r3, #15
    39c2:	18fb      	adds	r3, r7, r3
    39c4:	1dfa      	adds	r2, r7, #7
    39c6:	7812      	ldrb	r2, [r2, #0]
    39c8:	09d2      	lsrs	r2, r2, #7
    39ca:	701a      	strb	r2, [r3, #0]
    39cc:	230e      	movs	r3, #14
    39ce:	18fb      	adds	r3, r7, r3
    39d0:	1dfa      	adds	r2, r7, #7
    39d2:	7812      	ldrb	r2, [r2, #0]
    39d4:	0952      	lsrs	r2, r2, #5
    39d6:	701a      	strb	r2, [r3, #0]
    39d8:	4b0d      	ldr	r3, [pc, #52]	; (3a10 <system_pinmux_get_group_from_gpio_pin+0x5c>)
    39da:	60bb      	str	r3, [r7, #8]
    39dc:	230f      	movs	r3, #15
    39de:	18fb      	adds	r3, r7, r3
    39e0:	781b      	ldrb	r3, [r3, #0]
    39e2:	2b00      	cmp	r3, #0
    39e4:	d10f      	bne.n	3a06 <system_pinmux_get_group_from_gpio_pin+0x52>
    39e6:	230f      	movs	r3, #15
    39e8:	18fb      	adds	r3, r7, r3
    39ea:	781b      	ldrb	r3, [r3, #0]
    39ec:	009b      	lsls	r3, r3, #2
    39ee:	2210      	movs	r2, #16
    39f0:	4694      	mov	ip, r2
    39f2:	44bc      	add	ip, r7
    39f4:	4463      	add	r3, ip
    39f6:	3b08      	subs	r3, #8
    39f8:	681a      	ldr	r2, [r3, #0]
    39fa:	230e      	movs	r3, #14
    39fc:	18fb      	adds	r3, r7, r3
    39fe:	781b      	ldrb	r3, [r3, #0]
    3a00:	01db      	lsls	r3, r3, #7
    3a02:	18d3      	adds	r3, r2, r3
    3a04:	e000      	b.n	3a08 <system_pinmux_get_group_from_gpio_pin+0x54>
    3a06:	2300      	movs	r3, #0
    3a08:	0018      	movs	r0, r3
    3a0a:	46bd      	mov	sp, r7
    3a0c:	b004      	add	sp, #16
    3a0e:	bd80      	pop	{r7, pc}
    3a10:	41004400 	.word	0x41004400

00003a14 <_system_pinmux_config>:
    3a14:	b580      	push	{r7, lr}
    3a16:	b088      	sub	sp, #32
    3a18:	af00      	add	r7, sp, #0
    3a1a:	60f8      	str	r0, [r7, #12]
    3a1c:	60b9      	str	r1, [r7, #8]
    3a1e:	607a      	str	r2, [r7, #4]
    3a20:	2300      	movs	r3, #0
    3a22:	61fb      	str	r3, [r7, #28]
    3a24:	687b      	ldr	r3, [r7, #4]
    3a26:	78db      	ldrb	r3, [r3, #3]
    3a28:	2201      	movs	r2, #1
    3a2a:	4053      	eors	r3, r2
    3a2c:	b2db      	uxtb	r3, r3
    3a2e:	2b00      	cmp	r3, #0
    3a30:	d035      	beq.n	3a9e <_system_pinmux_config+0x8a>
    3a32:	687b      	ldr	r3, [r7, #4]
    3a34:	781b      	ldrb	r3, [r3, #0]
    3a36:	2b80      	cmp	r3, #128	; 0x80
    3a38:	d00b      	beq.n	3a52 <_system_pinmux_config+0x3e>
    3a3a:	69fb      	ldr	r3, [r7, #28]
    3a3c:	2280      	movs	r2, #128	; 0x80
    3a3e:	0252      	lsls	r2, r2, #9
    3a40:	4313      	orrs	r3, r2
    3a42:	61fb      	str	r3, [r7, #28]
    3a44:	687b      	ldr	r3, [r7, #4]
    3a46:	781b      	ldrb	r3, [r3, #0]
    3a48:	061b      	lsls	r3, r3, #24
    3a4a:	001a      	movs	r2, r3
    3a4c:	69fb      	ldr	r3, [r7, #28]
    3a4e:	4313      	orrs	r3, r2
    3a50:	61fb      	str	r3, [r7, #28]
    3a52:	687b      	ldr	r3, [r7, #4]
    3a54:	785b      	ldrb	r3, [r3, #1]
    3a56:	2b00      	cmp	r3, #0
    3a58:	d003      	beq.n	3a62 <_system_pinmux_config+0x4e>
    3a5a:	687b      	ldr	r3, [r7, #4]
    3a5c:	785b      	ldrb	r3, [r3, #1]
    3a5e:	2b02      	cmp	r3, #2
    3a60:	d110      	bne.n	3a84 <_system_pinmux_config+0x70>
    3a62:	69fb      	ldr	r3, [r7, #28]
    3a64:	2280      	movs	r2, #128	; 0x80
    3a66:	0292      	lsls	r2, r2, #10
    3a68:	4313      	orrs	r3, r2
    3a6a:	61fb      	str	r3, [r7, #28]
    3a6c:	687b      	ldr	r3, [r7, #4]
    3a6e:	789b      	ldrb	r3, [r3, #2]
    3a70:	2b00      	cmp	r3, #0
    3a72:	d004      	beq.n	3a7e <_system_pinmux_config+0x6a>
    3a74:	69fb      	ldr	r3, [r7, #28]
    3a76:	2280      	movs	r2, #128	; 0x80
    3a78:	02d2      	lsls	r2, r2, #11
    3a7a:	4313      	orrs	r3, r2
    3a7c:	61fb      	str	r3, [r7, #28]
    3a7e:	68fb      	ldr	r3, [r7, #12]
    3a80:	68ba      	ldr	r2, [r7, #8]
    3a82:	605a      	str	r2, [r3, #4]
    3a84:	687b      	ldr	r3, [r7, #4]
    3a86:	785b      	ldrb	r3, [r3, #1]
    3a88:	2b01      	cmp	r3, #1
    3a8a:	d003      	beq.n	3a94 <_system_pinmux_config+0x80>
    3a8c:	687b      	ldr	r3, [r7, #4]
    3a8e:	785b      	ldrb	r3, [r3, #1]
    3a90:	2b02      	cmp	r3, #2
    3a92:	d107      	bne.n	3aa4 <_system_pinmux_config+0x90>
    3a94:	69fb      	ldr	r3, [r7, #28]
    3a96:	4a22      	ldr	r2, [pc, #136]	; (3b20 <_system_pinmux_config+0x10c>)
    3a98:	4013      	ands	r3, r2
    3a9a:	61fb      	str	r3, [r7, #28]
    3a9c:	e002      	b.n	3aa4 <_system_pinmux_config+0x90>
    3a9e:	68fb      	ldr	r3, [r7, #12]
    3aa0:	68ba      	ldr	r2, [r7, #8]
    3aa2:	605a      	str	r2, [r3, #4]
    3aa4:	68bb      	ldr	r3, [r7, #8]
    3aa6:	041b      	lsls	r3, r3, #16
    3aa8:	0c1b      	lsrs	r3, r3, #16
    3aaa:	61bb      	str	r3, [r7, #24]
    3aac:	68bb      	ldr	r3, [r7, #8]
    3aae:	0c1b      	lsrs	r3, r3, #16
    3ab0:	617b      	str	r3, [r7, #20]
    3ab2:	69ba      	ldr	r2, [r7, #24]
    3ab4:	69fb      	ldr	r3, [r7, #28]
    3ab6:	4313      	orrs	r3, r2
    3ab8:	22a0      	movs	r2, #160	; 0xa0
    3aba:	05d2      	lsls	r2, r2, #23
    3abc:	431a      	orrs	r2, r3
    3abe:	68fb      	ldr	r3, [r7, #12]
    3ac0:	629a      	str	r2, [r3, #40]	; 0x28
    3ac2:	697a      	ldr	r2, [r7, #20]
    3ac4:	69fb      	ldr	r3, [r7, #28]
    3ac6:	4313      	orrs	r3, r2
    3ac8:	22d0      	movs	r2, #208	; 0xd0
    3aca:	0612      	lsls	r2, r2, #24
    3acc:	431a      	orrs	r2, r3
    3ace:	68fb      	ldr	r3, [r7, #12]
    3ad0:	629a      	str	r2, [r3, #40]	; 0x28
    3ad2:	687b      	ldr	r3, [r7, #4]
    3ad4:	78db      	ldrb	r3, [r3, #3]
    3ad6:	2201      	movs	r2, #1
    3ad8:	4053      	eors	r3, r2
    3ada:	b2db      	uxtb	r3, r3
    3adc:	2b00      	cmp	r3, #0
    3ade:	d01a      	beq.n	3b16 <_system_pinmux_config+0x102>
    3ae0:	69fa      	ldr	r2, [r7, #28]
    3ae2:	2380      	movs	r3, #128	; 0x80
    3ae4:	02db      	lsls	r3, r3, #11
    3ae6:	4013      	ands	r3, r2
    3ae8:	d00a      	beq.n	3b00 <_system_pinmux_config+0xec>
    3aea:	687b      	ldr	r3, [r7, #4]
    3aec:	789b      	ldrb	r3, [r3, #2]
    3aee:	2b01      	cmp	r3, #1
    3af0:	d103      	bne.n	3afa <_system_pinmux_config+0xe6>
    3af2:	68fb      	ldr	r3, [r7, #12]
    3af4:	68ba      	ldr	r2, [r7, #8]
    3af6:	619a      	str	r2, [r3, #24]
    3af8:	e002      	b.n	3b00 <_system_pinmux_config+0xec>
    3afa:	68fb      	ldr	r3, [r7, #12]
    3afc:	68ba      	ldr	r2, [r7, #8]
    3afe:	615a      	str	r2, [r3, #20]
    3b00:	687b      	ldr	r3, [r7, #4]
    3b02:	785b      	ldrb	r3, [r3, #1]
    3b04:	2b01      	cmp	r3, #1
    3b06:	d003      	beq.n	3b10 <_system_pinmux_config+0xfc>
    3b08:	687b      	ldr	r3, [r7, #4]
    3b0a:	785b      	ldrb	r3, [r3, #1]
    3b0c:	2b02      	cmp	r3, #2
    3b0e:	d102      	bne.n	3b16 <_system_pinmux_config+0x102>
    3b10:	68fb      	ldr	r3, [r7, #12]
    3b12:	68ba      	ldr	r2, [r7, #8]
    3b14:	609a      	str	r2, [r3, #8]
    3b16:	46c0      	nop			; (mov r8, r8)
    3b18:	46bd      	mov	sp, r7
    3b1a:	b008      	add	sp, #32
    3b1c:	bd80      	pop	{r7, pc}
    3b1e:	46c0      	nop			; (mov r8, r8)
    3b20:	fffbffff 	.word	0xfffbffff

00003b24 <system_pinmux_pin_set_config>:
    3b24:	b580      	push	{r7, lr}
    3b26:	b084      	sub	sp, #16
    3b28:	af00      	add	r7, sp, #0
    3b2a:	0002      	movs	r2, r0
    3b2c:	6039      	str	r1, [r7, #0]
    3b2e:	1dfb      	adds	r3, r7, #7
    3b30:	701a      	strb	r2, [r3, #0]
    3b32:	1dfb      	adds	r3, r7, #7
    3b34:	781b      	ldrb	r3, [r3, #0]
    3b36:	0018      	movs	r0, r3
    3b38:	4b0a      	ldr	r3, [pc, #40]	; (3b64 <system_pinmux_pin_set_config+0x40>)
    3b3a:	4798      	blx	r3
    3b3c:	0003      	movs	r3, r0
    3b3e:	60fb      	str	r3, [r7, #12]
    3b40:	1dfb      	adds	r3, r7, #7
    3b42:	781b      	ldrb	r3, [r3, #0]
    3b44:	221f      	movs	r2, #31
    3b46:	4013      	ands	r3, r2
    3b48:	2201      	movs	r2, #1
    3b4a:	409a      	lsls	r2, r3
    3b4c:	0013      	movs	r3, r2
    3b4e:	60bb      	str	r3, [r7, #8]
    3b50:	683a      	ldr	r2, [r7, #0]
    3b52:	68b9      	ldr	r1, [r7, #8]
    3b54:	68fb      	ldr	r3, [r7, #12]
    3b56:	0018      	movs	r0, r3
    3b58:	4b03      	ldr	r3, [pc, #12]	; (3b68 <system_pinmux_pin_set_config+0x44>)
    3b5a:	4798      	blx	r3
    3b5c:	46c0      	nop			; (mov r8, r8)
    3b5e:	46bd      	mov	sp, r7
    3b60:	b004      	add	sp, #16
    3b62:	bd80      	pop	{r7, pc}
    3b64:	000039b5 	.word	0x000039b5
    3b68:	00003a15 	.word	0x00003a15

00003b6c <_system_dummy_init>:
    3b6c:	b580      	push	{r7, lr}
    3b6e:	af00      	add	r7, sp, #0
    3b70:	46c0      	nop			; (mov r8, r8)
    3b72:	46bd      	mov	sp, r7
    3b74:	bd80      	pop	{r7, pc}
	...

00003b78 <system_init>:
    3b78:	b580      	push	{r7, lr}
    3b7a:	af00      	add	r7, sp, #0
    3b7c:	4b06      	ldr	r3, [pc, #24]	; (3b98 <system_init+0x20>)
    3b7e:	4798      	blx	r3
    3b80:	4b06      	ldr	r3, [pc, #24]	; (3b9c <system_init+0x24>)
    3b82:	4798      	blx	r3
    3b84:	4b06      	ldr	r3, [pc, #24]	; (3ba0 <system_init+0x28>)
    3b86:	4798      	blx	r3
    3b88:	4b06      	ldr	r3, [pc, #24]	; (3ba4 <system_init+0x2c>)
    3b8a:	4798      	blx	r3
    3b8c:	4b06      	ldr	r3, [pc, #24]	; (3ba8 <system_init+0x30>)
    3b8e:	4798      	blx	r3
    3b90:	46c0      	nop			; (mov r8, r8)
    3b92:	46bd      	mov	sp, r7
    3b94:	bd80      	pop	{r7, pc}
    3b96:	46c0      	nop			; (mov r8, r8)
    3b98:	00003291 	.word	0x00003291
    3b9c:	00002b21 	.word	0x00002b21
    3ba0:	00003b6d 	.word	0x00003b6d
    3ba4:	00003b6d 	.word	0x00003b6d
    3ba8:	00003b6d 	.word	0x00003b6d

00003bac <Reset_Handler>:
    3bac:	b580      	push	{r7, lr}
    3bae:	b082      	sub	sp, #8
    3bb0:	af00      	add	r7, sp, #0
    3bb2:	4b2f      	ldr	r3, [pc, #188]	; (3c70 <Reset_Handler+0xc4>)
    3bb4:	607b      	str	r3, [r7, #4]
    3bb6:	4b2f      	ldr	r3, [pc, #188]	; (3c74 <Reset_Handler+0xc8>)
    3bb8:	603b      	str	r3, [r7, #0]
    3bba:	687a      	ldr	r2, [r7, #4]
    3bbc:	683b      	ldr	r3, [r7, #0]
    3bbe:	429a      	cmp	r2, r3
    3bc0:	d00c      	beq.n	3bdc <Reset_Handler+0x30>
    3bc2:	e007      	b.n	3bd4 <Reset_Handler+0x28>
    3bc4:	683b      	ldr	r3, [r7, #0]
    3bc6:	1d1a      	adds	r2, r3, #4
    3bc8:	603a      	str	r2, [r7, #0]
    3bca:	687a      	ldr	r2, [r7, #4]
    3bcc:	1d11      	adds	r1, r2, #4
    3bce:	6079      	str	r1, [r7, #4]
    3bd0:	6812      	ldr	r2, [r2, #0]
    3bd2:	601a      	str	r2, [r3, #0]
    3bd4:	683a      	ldr	r2, [r7, #0]
    3bd6:	4b28      	ldr	r3, [pc, #160]	; (3c78 <Reset_Handler+0xcc>)
    3bd8:	429a      	cmp	r2, r3
    3bda:	d3f3      	bcc.n	3bc4 <Reset_Handler+0x18>
    3bdc:	4b27      	ldr	r3, [pc, #156]	; (3c7c <Reset_Handler+0xd0>)
    3bde:	603b      	str	r3, [r7, #0]
    3be0:	e004      	b.n	3bec <Reset_Handler+0x40>
    3be2:	683b      	ldr	r3, [r7, #0]
    3be4:	1d1a      	adds	r2, r3, #4
    3be6:	603a      	str	r2, [r7, #0]
    3be8:	2200      	movs	r2, #0
    3bea:	601a      	str	r2, [r3, #0]
    3bec:	683a      	ldr	r2, [r7, #0]
    3bee:	4b24      	ldr	r3, [pc, #144]	; (3c80 <Reset_Handler+0xd4>)
    3bf0:	429a      	cmp	r2, r3
    3bf2:	d3f6      	bcc.n	3be2 <Reset_Handler+0x36>
    3bf4:	4b23      	ldr	r3, [pc, #140]	; (3c84 <Reset_Handler+0xd8>)
    3bf6:	607b      	str	r3, [r7, #4]
    3bf8:	4b23      	ldr	r3, [pc, #140]	; (3c88 <Reset_Handler+0xdc>)
    3bfa:	687a      	ldr	r2, [r7, #4]
    3bfc:	21ff      	movs	r1, #255	; 0xff
    3bfe:	438a      	bics	r2, r1
    3c00:	609a      	str	r2, [r3, #8]
    3c02:	4a22      	ldr	r2, [pc, #136]	; (3c8c <Reset_Handler+0xe0>)
    3c04:	2390      	movs	r3, #144	; 0x90
    3c06:	005b      	lsls	r3, r3, #1
    3c08:	2102      	movs	r1, #2
    3c0a:	50d1      	str	r1, [r2, r3]
    3c0c:	4a20      	ldr	r2, [pc, #128]	; (3c90 <Reset_Handler+0xe4>)
    3c0e:	78d3      	ldrb	r3, [r2, #3]
    3c10:	2103      	movs	r1, #3
    3c12:	438b      	bics	r3, r1
    3c14:	1c19      	adds	r1, r3, #0
    3c16:	2302      	movs	r3, #2
    3c18:	430b      	orrs	r3, r1
    3c1a:	70d3      	strb	r3, [r2, #3]
    3c1c:	4a1c      	ldr	r2, [pc, #112]	; (3c90 <Reset_Handler+0xe4>)
    3c1e:	78d3      	ldrb	r3, [r2, #3]
    3c20:	210c      	movs	r1, #12
    3c22:	438b      	bics	r3, r1
    3c24:	1c19      	adds	r1, r3, #0
    3c26:	2308      	movs	r3, #8
    3c28:	430b      	orrs	r3, r1
    3c2a:	70d3      	strb	r3, [r2, #3]
    3c2c:	4a19      	ldr	r2, [pc, #100]	; (3c94 <Reset_Handler+0xe8>)
    3c2e:	7b93      	ldrb	r3, [r2, #14]
    3c30:	2130      	movs	r1, #48	; 0x30
    3c32:	438b      	bics	r3, r1
    3c34:	1c19      	adds	r1, r3, #0
    3c36:	2320      	movs	r3, #32
    3c38:	430b      	orrs	r3, r1
    3c3a:	7393      	strb	r3, [r2, #14]
    3c3c:	4a15      	ldr	r2, [pc, #84]	; (3c94 <Reset_Handler+0xe8>)
    3c3e:	7b93      	ldrb	r3, [r2, #14]
    3c40:	210c      	movs	r1, #12
    3c42:	438b      	bics	r3, r1
    3c44:	1c19      	adds	r1, r3, #0
    3c46:	2308      	movs	r3, #8
    3c48:	430b      	orrs	r3, r1
    3c4a:	7393      	strb	r3, [r2, #14]
    3c4c:	4a11      	ldr	r2, [pc, #68]	; (3c94 <Reset_Handler+0xe8>)
    3c4e:	7b93      	ldrb	r3, [r2, #14]
    3c50:	2103      	movs	r1, #3
    3c52:	438b      	bics	r3, r1
    3c54:	1c19      	adds	r1, r3, #0
    3c56:	2302      	movs	r3, #2
    3c58:	430b      	orrs	r3, r1
    3c5a:	7393      	strb	r3, [r2, #14]
    3c5c:	4a0e      	ldr	r2, [pc, #56]	; (3c98 <Reset_Handler+0xec>)
    3c5e:	6853      	ldr	r3, [r2, #4]
    3c60:	2180      	movs	r1, #128	; 0x80
    3c62:	430b      	orrs	r3, r1
    3c64:	6053      	str	r3, [r2, #4]
    3c66:	4b0d      	ldr	r3, [pc, #52]	; (3c9c <Reset_Handler+0xf0>)
    3c68:	4798      	blx	r3
    3c6a:	4b0d      	ldr	r3, [pc, #52]	; (3ca0 <Reset_Handler+0xf4>)
    3c6c:	4798      	blx	r3
    3c6e:	e7fe      	b.n	3c6e <Reset_Handler+0xc2>
    3c70:	00004500 	.word	0x00004500
    3c74:	20000000 	.word	0x20000000
    3c78:	20000070 	.word	0x20000070
    3c7c:	20000070 	.word	0x20000070
    3c80:	200004d0 	.word	0x200004d0
    3c84:	00000000 	.word	0x00000000
    3c88:	e000ed00 	.word	0xe000ed00
    3c8c:	41007000 	.word	0x41007000
    3c90:	41005000 	.word	0x41005000
    3c94:	41004800 	.word	0x41004800
    3c98:	41004000 	.word	0x41004000
    3c9c:	00004155 	.word	0x00004155
    3ca0:	00003ef5 	.word	0x00003ef5

00003ca4 <Dummy_Handler>:
    3ca4:	b580      	push	{r7, lr}
    3ca6:	af00      	add	r7, sp, #0
    3ca8:	e7fe      	b.n	3ca8 <Dummy_Handler+0x4>
	...

00003cac <_sbrk>:
    3cac:	b580      	push	{r7, lr}
    3cae:	b084      	sub	sp, #16
    3cb0:	af00      	add	r7, sp, #0
    3cb2:	6078      	str	r0, [r7, #4]
    3cb4:	4b0a      	ldr	r3, [pc, #40]	; (3ce0 <_sbrk+0x34>)
    3cb6:	681b      	ldr	r3, [r3, #0]
    3cb8:	2b00      	cmp	r3, #0
    3cba:	d102      	bne.n	3cc2 <_sbrk+0x16>
    3cbc:	4b08      	ldr	r3, [pc, #32]	; (3ce0 <_sbrk+0x34>)
    3cbe:	4a09      	ldr	r2, [pc, #36]	; (3ce4 <_sbrk+0x38>)
    3cc0:	601a      	str	r2, [r3, #0]
    3cc2:	4b07      	ldr	r3, [pc, #28]	; (3ce0 <_sbrk+0x34>)
    3cc4:	681b      	ldr	r3, [r3, #0]
    3cc6:	60fb      	str	r3, [r7, #12]
    3cc8:	4b05      	ldr	r3, [pc, #20]	; (3ce0 <_sbrk+0x34>)
    3cca:	681a      	ldr	r2, [r3, #0]
    3ccc:	687b      	ldr	r3, [r7, #4]
    3cce:	18d2      	adds	r2, r2, r3
    3cd0:	4b03      	ldr	r3, [pc, #12]	; (3ce0 <_sbrk+0x34>)
    3cd2:	601a      	str	r2, [r3, #0]
    3cd4:	68fb      	ldr	r3, [r7, #12]
    3cd6:	0018      	movs	r0, r3
    3cd8:	46bd      	mov	sp, r7
    3cda:	b004      	add	sp, #16
    3cdc:	bd80      	pop	{r7, pc}
    3cde:	46c0      	nop			; (mov r8, r8)
    3ce0:	200000c8 	.word	0x200000c8
    3ce4:	200024d0 	.word	0x200024d0

00003ce8 <system_pinmux_get_group_from_gpio_pin>:
 *
 * \return Base address of the associated PORT module.
 */
static inline PortGroup* system_pinmux_get_group_from_gpio_pin(
		const uint8_t gpio_pin)
{
    3ce8:	b580      	push	{r7, lr}
    3cea:	b084      	sub	sp, #16
    3cec:	af00      	add	r7, sp, #0
    3cee:	0002      	movs	r2, r0
    3cf0:	1dfb      	adds	r3, r7, #7
    3cf2:	701a      	strb	r2, [r3, #0]
	uint8_t port_index  = (gpio_pin / 128);
    3cf4:	230f      	movs	r3, #15
    3cf6:	18fb      	adds	r3, r7, r3
    3cf8:	1dfa      	adds	r2, r7, #7
    3cfa:	7812      	ldrb	r2, [r2, #0]
    3cfc:	09d2      	lsrs	r2, r2, #7
    3cfe:	701a      	strb	r2, [r3, #0]
	uint8_t group_index = (gpio_pin / 32);
    3d00:	230e      	movs	r3, #14
    3d02:	18fb      	adds	r3, r7, r3
    3d04:	1dfa      	adds	r2, r7, #7
    3d06:	7812      	ldrb	r2, [r2, #0]
    3d08:	0952      	lsrs	r2, r2, #5
    3d0a:	701a      	strb	r2, [r3, #0]

	/* Array of available ports */
	Port *const ports[PORT_INST_NUM] = PORT_INSTS;
    3d0c:	4b0d      	ldr	r3, [pc, #52]	; (3d44 <system_pinmux_get_group_from_gpio_pin+0x5c>)
    3d0e:	60bb      	str	r3, [r7, #8]

	if (port_index < PORT_INST_NUM) {
    3d10:	230f      	movs	r3, #15
    3d12:	18fb      	adds	r3, r7, r3
    3d14:	781b      	ldrb	r3, [r3, #0]
    3d16:	2b00      	cmp	r3, #0
    3d18:	d10f      	bne.n	3d3a <system_pinmux_get_group_from_gpio_pin+0x52>
		return &(ports[port_index]->Group[group_index]);
    3d1a:	230f      	movs	r3, #15
    3d1c:	18fb      	adds	r3, r7, r3
    3d1e:	781b      	ldrb	r3, [r3, #0]
    3d20:	009b      	lsls	r3, r3, #2
    3d22:	2210      	movs	r2, #16
    3d24:	4694      	mov	ip, r2
    3d26:	44bc      	add	ip, r7
    3d28:	4463      	add	r3, ip
    3d2a:	3b08      	subs	r3, #8
    3d2c:	681a      	ldr	r2, [r3, #0]
    3d2e:	230e      	movs	r3, #14
    3d30:	18fb      	adds	r3, r7, r3
    3d32:	781b      	ldrb	r3, [r3, #0]
    3d34:	01db      	lsls	r3, r3, #7
    3d36:	18d3      	adds	r3, r2, r3
    3d38:	e000      	b.n	3d3c <system_pinmux_get_group_from_gpio_pin+0x54>
	} else {
		Assert(false);
		return NULL;
    3d3a:	2300      	movs	r3, #0
	}
}
    3d3c:	0018      	movs	r0, r3
    3d3e:	46bd      	mov	sp, r7
    3d40:	b004      	add	sp, #16
    3d42:	bd80      	pop	{r7, pc}
    3d44:	41004400 	.word	0x41004400

00003d48 <port_get_group_from_gpio_pin>:
 *
 *  \return Base address of the associated PORT module.
 */
static inline PortGroup* port_get_group_from_gpio_pin(
		const uint8_t gpio_pin)
{
    3d48:	b580      	push	{r7, lr}
    3d4a:	b082      	sub	sp, #8
    3d4c:	af00      	add	r7, sp, #0
    3d4e:	0002      	movs	r2, r0
    3d50:	1dfb      	adds	r3, r7, #7
    3d52:	701a      	strb	r2, [r3, #0]
	return system_pinmux_get_group_from_gpio_pin(gpio_pin);
    3d54:	1dfb      	adds	r3, r7, #7
    3d56:	781b      	ldrb	r3, [r3, #0]
    3d58:	0018      	movs	r0, r3
    3d5a:	4b03      	ldr	r3, [pc, #12]	; (3d68 <port_get_group_from_gpio_pin+0x20>)
    3d5c:	4798      	blx	r3
    3d5e:	0003      	movs	r3, r0
}
    3d60:	0018      	movs	r0, r3
    3d62:	46bd      	mov	sp, r7
    3d64:	b002      	add	sp, #8
    3d66:	bd80      	pop	{r7, pc}
    3d68:	00003ce9 	.word	0x00003ce9

00003d6c <port_pin_get_input_level>:
 *
 *  \return Status of the port pin's input buffer.
 */
static inline bool port_pin_get_input_level(
		const uint8_t gpio_pin)
{
    3d6c:	b580      	push	{r7, lr}
    3d6e:	b084      	sub	sp, #16
    3d70:	af00      	add	r7, sp, #0
    3d72:	0002      	movs	r2, r0
    3d74:	1dfb      	adds	r3, r7, #7
    3d76:	701a      	strb	r2, [r3, #0]
	PortGroup *const port_base = port_get_group_from_gpio_pin(gpio_pin);
    3d78:	1dfb      	adds	r3, r7, #7
    3d7a:	781b      	ldrb	r3, [r3, #0]
    3d7c:	0018      	movs	r0, r3
    3d7e:	4b0b      	ldr	r3, [pc, #44]	; (3dac <port_pin_get_input_level+0x40>)
    3d80:	4798      	blx	r3
    3d82:	0003      	movs	r3, r0
    3d84:	60fb      	str	r3, [r7, #12]
	uint32_t pin_mask  = (1UL << (gpio_pin % 32));
    3d86:	1dfb      	adds	r3, r7, #7
    3d88:	781b      	ldrb	r3, [r3, #0]
    3d8a:	221f      	movs	r2, #31
    3d8c:	4013      	ands	r3, r2
    3d8e:	2201      	movs	r2, #1
    3d90:	409a      	lsls	r2, r3
    3d92:	0013      	movs	r3, r2
    3d94:	60bb      	str	r3, [r7, #8]

	return (port_base->IN.reg & pin_mask);
    3d96:	68fb      	ldr	r3, [r7, #12]
    3d98:	6a1b      	ldr	r3, [r3, #32]
    3d9a:	68ba      	ldr	r2, [r7, #8]
    3d9c:	4013      	ands	r3, r2
    3d9e:	1e5a      	subs	r2, r3, #1
    3da0:	4193      	sbcs	r3, r2
    3da2:	b2db      	uxtb	r3, r3
}
    3da4:	0018      	movs	r0, r3
    3da6:	46bd      	mov	sp, r7
    3da8:	b004      	add	sp, #16
    3daa:	bd80      	pop	{r7, pc}
    3dac:	00003d49 	.word	0x00003d49

00003db0 <port_pin_set_output_level>:
 *  \param[in] level     Logical level to set the given pin to
 */
static inline void port_pin_set_output_level(
		const uint8_t gpio_pin,
		const bool level)
{
    3db0:	b580      	push	{r7, lr}
    3db2:	b084      	sub	sp, #16
    3db4:	af00      	add	r7, sp, #0
    3db6:	0002      	movs	r2, r0
    3db8:	1dfb      	adds	r3, r7, #7
    3dba:	701a      	strb	r2, [r3, #0]
    3dbc:	1dbb      	adds	r3, r7, #6
    3dbe:	1c0a      	adds	r2, r1, #0
    3dc0:	701a      	strb	r2, [r3, #0]
	PortGroup *const port_base = port_get_group_from_gpio_pin(gpio_pin);
    3dc2:	1dfb      	adds	r3, r7, #7
    3dc4:	781b      	ldrb	r3, [r3, #0]
    3dc6:	0018      	movs	r0, r3
    3dc8:	4b0d      	ldr	r3, [pc, #52]	; (3e00 <port_pin_set_output_level+0x50>)
    3dca:	4798      	blx	r3
    3dcc:	0003      	movs	r3, r0
    3dce:	60fb      	str	r3, [r7, #12]
	uint32_t pin_mask  = (1UL << (gpio_pin % 32));
    3dd0:	1dfb      	adds	r3, r7, #7
    3dd2:	781b      	ldrb	r3, [r3, #0]
    3dd4:	221f      	movs	r2, #31
    3dd6:	4013      	ands	r3, r2
    3dd8:	2201      	movs	r2, #1
    3dda:	409a      	lsls	r2, r3
    3ddc:	0013      	movs	r3, r2
    3dde:	60bb      	str	r3, [r7, #8]

	/* Set the pin to high or low atomically based on the requested level */
	if (level) {
    3de0:	1dbb      	adds	r3, r7, #6
    3de2:	781b      	ldrb	r3, [r3, #0]
    3de4:	2b00      	cmp	r3, #0
    3de6:	d003      	beq.n	3df0 <port_pin_set_output_level+0x40>
		port_base->OUTSET.reg = pin_mask;
    3de8:	68fb      	ldr	r3, [r7, #12]
    3dea:	68ba      	ldr	r2, [r7, #8]
    3dec:	619a      	str	r2, [r3, #24]
	} else {
		port_base->OUTCLR.reg = pin_mask;
	}
}
    3dee:	e002      	b.n	3df6 <port_pin_set_output_level+0x46>
		port_base->OUTCLR.reg = pin_mask;
    3df0:	68fb      	ldr	r3, [r7, #12]
    3df2:	68ba      	ldr	r2, [r7, #8]
    3df4:	615a      	str	r2, [r3, #20]
}
    3df6:	46c0      	nop			; (mov r8, r8)
    3df8:	46bd      	mov	sp, r7
    3dfa:	b004      	add	sp, #16
    3dfc:	bd80      	pop	{r7, pc}
    3dfe:	46c0      	nop			; (mov r8, r8)
    3e00:	00003d49 	.word	0x00003d49

00003e04 <tcc_enable>:
 *
 * \param[in]  module_inst   Pointer to the software module instance struct
 */
static inline void tcc_enable(
		const struct tcc_module *const module_inst)
{
    3e04:	b580      	push	{r7, lr}
    3e06:	b084      	sub	sp, #16
    3e08:	af00      	add	r7, sp, #0
    3e0a:	6078      	str	r0, [r7, #4]
	/* Sanity check arguments */
	Assert(module_inst);
	Assert(module_inst->hw);

	/* Get a pointer to the module's hardware instance */
	Tcc *const tcc_module = module_inst->hw;
    3e0c:	687b      	ldr	r3, [r7, #4]
    3e0e:	681b      	ldr	r3, [r3, #0]
    3e10:	60fb      	str	r3, [r7, #12]

	while (tcc_module->SYNCBUSY.reg & TCC_SYNCBUSY_ENABLE) {
    3e12:	46c0      	nop			; (mov r8, r8)
    3e14:	68fb      	ldr	r3, [r7, #12]
    3e16:	689b      	ldr	r3, [r3, #8]
    3e18:	2202      	movs	r2, #2
    3e1a:	4013      	ands	r3, r2
    3e1c:	d1fa      	bne.n	3e14 <tcc_enable+0x10>
		/* Wait for sync */
	}

	/* Enable the TCC module */
	tcc_module->CTRLA.reg |= TCC_CTRLA_ENABLE;
    3e1e:	68fb      	ldr	r3, [r7, #12]
    3e20:	681b      	ldr	r3, [r3, #0]
    3e22:	2202      	movs	r2, #2
    3e24:	431a      	orrs	r2, r3
    3e26:	68fb      	ldr	r3, [r7, #12]
    3e28:	601a      	str	r2, [r3, #0]
}
    3e2a:	46c0      	nop			; (mov r8, r8)
    3e2c:	46bd      	mov	sp, r7
    3e2e:	b004      	add	sp, #16
    3e30:	bd80      	pop	{r7, pc}
	...

00003e34 <tcc_disable>:
 *
 * \param[in]  module_inst   Pointer to the software module instance struct
 */
static inline void tcc_disable(
		const struct tcc_module *const module_inst)
{
    3e34:	b580      	push	{r7, lr}
    3e36:	b084      	sub	sp, #16
    3e38:	af00      	add	r7, sp, #0
    3e3a:	6078      	str	r0, [r7, #4]
	/* Sanity check arguments */
	Assert(module_inst);
	Assert(module_inst->hw);

	/* Get a pointer to the module's hardware instance */
	Tcc *const tcc_module = module_inst->hw;
    3e3c:	687b      	ldr	r3, [r7, #4]
    3e3e:	681b      	ldr	r3, [r3, #0]
    3e40:	60fb      	str	r3, [r7, #12]

	while (tcc_module->SYNCBUSY.reg & TCC_SYNCBUSY_ENABLE) {
    3e42:	46c0      	nop			; (mov r8, r8)
    3e44:	68fb      	ldr	r3, [r7, #12]
    3e46:	689b      	ldr	r3, [r3, #8]
    3e48:	2202      	movs	r2, #2
    3e4a:	4013      	ands	r3, r2
    3e4c:	d1fa      	bne.n	3e44 <tcc_disable+0x10>
		/* Wait for sync */
	}

	/* Disbale interrupt */
	tcc_module->INTENCLR.reg = TCC_INTENCLR_MASK;
    3e4e:	68fb      	ldr	r3, [r7, #12]
    3e50:	4a07      	ldr	r2, [pc, #28]	; (3e70 <tcc_disable+0x3c>)
    3e52:	625a      	str	r2, [r3, #36]	; 0x24
	/* Clear interrupt flag */
	tcc_module->INTFLAG.reg = TCC_INTFLAG_MASK;
    3e54:	68fb      	ldr	r3, [r7, #12]
    3e56:	4a06      	ldr	r2, [pc, #24]	; (3e70 <tcc_disable+0x3c>)
    3e58:	62da      	str	r2, [r3, #44]	; 0x2c

	/* Disable the TCC module */
	tcc_module->CTRLA.reg  &= ~TC_CTRLA_ENABLE;
    3e5a:	68fb      	ldr	r3, [r7, #12]
    3e5c:	681b      	ldr	r3, [r3, #0]
    3e5e:	2202      	movs	r2, #2
    3e60:	4393      	bics	r3, r2
    3e62:	001a      	movs	r2, r3
    3e64:	68fb      	ldr	r3, [r7, #12]
    3e66:	601a      	str	r2, [r3, #0]
}
    3e68:	46c0      	nop			; (mov r8, r8)
    3e6a:	46bd      	mov	sp, r7
    3e6c:	b004      	add	sp, #16
    3e6e:	bd80      	pop	{r7, pc}
    3e70:	000ffc0f 	.word	0x000ffc0f

00003e74 <configure_tcc>:

// used for the conversion of user input pin to int for use in processing
int pin_value[10];

static void configure_tcc(uint32_t newVal, uint32_t period)
{
    3e74:	b580      	push	{r7, lr}
    3e76:	b0ac      	sub	sp, #176	; 0xb0
    3e78:	af00      	add	r7, sp, #0
    3e7a:	6078      	str	r0, [r7, #4]
    3e7c:	6039      	str	r1, [r7, #0]
	struct tcc_config config_tcc;
	tcc_get_config_defaults(&config_tcc, CONF_PWM_MODULE);
    3e7e:	4a18      	ldr	r2, [pc, #96]	; (3ee0 <configure_tcc+0x6c>)
    3e80:	230c      	movs	r3, #12
    3e82:	18fb      	adds	r3, r7, r3
    3e84:	0011      	movs	r1, r2
    3e86:	0018      	movs	r0, r3
    3e88:	4b16      	ldr	r3, [pc, #88]	; (3ee4 <configure_tcc+0x70>)
    3e8a:	4798      	blx	r3
	config_tcc.counter.period = period;
    3e8c:	230c      	movs	r3, #12
    3e8e:	18fb      	adds	r3, r7, r3
    3e90:	683a      	ldr	r2, [r7, #0]
    3e92:	605a      	str	r2, [r3, #4]
	config_tcc.compare.wave_generation =
    3e94:	230c      	movs	r3, #12
    3e96:	18fb      	adds	r3, r7, r3
    3e98:	2202      	movs	r2, #2
    3e9a:	761a      	strb	r2, [r3, #24]
	TCC_WAVE_GENERATION_SINGLE_SLOPE_PWM;
	config_tcc.compare.match[CONF_PWM_CHANNEL] = newVal;
    3e9c:	230c      	movs	r3, #12
    3e9e:	18fb      	adds	r3, r7, r3
    3ea0:	687a      	ldr	r2, [r7, #4]
    3ea2:	625a      	str	r2, [r3, #36]	; 0x24
	config_tcc.pins.enable_wave_out_pin[CONF_PWM_OUTPUT] = true;
    3ea4:	230c      	movs	r3, #12
    3ea6:	18fb      	adds	r3, r7, r3
    3ea8:	229a      	movs	r2, #154	; 0x9a
    3eaa:	2101      	movs	r1, #1
    3eac:	5499      	strb	r1, [r3, r2]
	config_tcc.pins.wave_out_pin[CONF_PWM_OUTPUT] =
    3eae:	230c      	movs	r3, #12
    3eb0:	18fb      	adds	r3, r7, r3
    3eb2:	220a      	movs	r2, #10
    3eb4:	661a      	str	r2, [r3, #96]	; 0x60
	CONF_PWM_OUT_PIN;
	config_tcc.pins.wave_out_pin_mux[CONF_PWM_OUTPUT] =
    3eb6:	230c      	movs	r3, #12
    3eb8:	18fb      	adds	r3, r7, r3
    3eba:	2280      	movs	r2, #128	; 0x80
    3ebc:	2105      	movs	r1, #5
    3ebe:	5099      	str	r1, [r3, r2]
	CONF_PWM_OUT_MUX;
	tcc_init(&tcc_instance, CONF_PWM_MODULE, &config_tcc);
    3ec0:	230c      	movs	r3, #12
    3ec2:	18fa      	adds	r2, r7, r3
    3ec4:	4906      	ldr	r1, [pc, #24]	; (3ee0 <configure_tcc+0x6c>)
    3ec6:	4b08      	ldr	r3, [pc, #32]	; (3ee8 <configure_tcc+0x74>)
    3ec8:	0018      	movs	r0, r3
    3eca:	4b08      	ldr	r3, [pc, #32]	; (3eec <configure_tcc+0x78>)
    3ecc:	4798      	blx	r3
	tcc_enable(&tcc_instance);
    3ece:	4b06      	ldr	r3, [pc, #24]	; (3ee8 <configure_tcc+0x74>)
    3ed0:	0018      	movs	r0, r3
    3ed2:	4b07      	ldr	r3, [pc, #28]	; (3ef0 <configure_tcc+0x7c>)
    3ed4:	4798      	blx	r3
}
    3ed6:	46c0      	nop			; (mov r8, r8)
    3ed8:	46bd      	mov	sp, r7
    3eda:	b02c      	add	sp, #176	; 0xb0
    3edc:	bd80      	pop	{r7, pc}
    3ede:	46c0      	nop			; (mov r8, r8)
    3ee0:	42002000 	.word	0x42002000
    3ee4:	00000a89 	.word	0x00000a89
    3ee8:	20000384 	.word	0x20000384
    3eec:	000010e5 	.word	0x000010e5
    3ef0:	00003e05 	.word	0x00003e05

00003ef4 <main>:

}


int main (void)
{
    3ef4:	b590      	push	{r4, r7, lr}
    3ef6:	b08b      	sub	sp, #44	; 0x2c
    3ef8:	af00      	add	r7, sp, #0
	//Board Initialization -- Code that initializes the HW and happens only once
	system_init();
    3efa:	4b28      	ldr	r3, [pc, #160]	; (3f9c <main+0xa8>)
    3efc:	4798      	blx	r3
	InitializeSerialConsole();
    3efe:	4b28      	ldr	r3, [pc, #160]	; (3fa0 <main+0xac>)
    3f00:	4798      	blx	r3
	configure_tcc(0xFFFFF/(2*10.922) * 2, 0xFFFFF/1.0921); // starting at 0.5ms width
    3f02:	4a28      	ldr	r2, [pc, #160]	; (3fa4 <main+0xb0>)
    3f04:	4b28      	ldr	r3, [pc, #160]	; (3fa8 <main+0xb4>)
    3f06:	0011      	movs	r1, r2
    3f08:	0018      	movs	r0, r3
    3f0a:	4b28      	ldr	r3, [pc, #160]	; (3fac <main+0xb8>)
    3f0c:	4798      	blx	r3
	SerialConsoleWriteString("ESE516 - CLI and Debug Logger\r\n");	//Order to add string to TX Buffer
    3f0e:	4b28      	ldr	r3, [pc, #160]	; (3fb0 <main+0xbc>)
    3f10:	0018      	movs	r0, r3
    3f12:	4b28      	ldr	r3, [pc, #160]	; (3fb4 <main+0xc0>)
    3f14:	4798      	blx	r3
	delay_init();
    3f16:	4b28      	ldr	r3, [pc, #160]	; (3fb8 <main+0xc4>)
    3f18:	4798      	blx	r3
	char string[] = "CLI starter code - ESE516\r\n";
    3f1a:	1d3b      	adds	r3, r7, #4
    3f1c:	4a27      	ldr	r2, [pc, #156]	; (3fbc <main+0xc8>)
    3f1e:	ca13      	ldmia	r2!, {r0, r1, r4}
    3f20:	c313      	stmia	r3!, {r0, r1, r4}
    3f22:	ca13      	ldmia	r2!, {r0, r1, r4}
    3f24:	c313      	stmia	r3!, {r0, r1, r4}
    3f26:	6812      	ldr	r2, [r2, #0]
    3f28:	601a      	str	r2, [r3, #0]
	
	/*Simple DebugLogger Test*/
	setLogLevel(LOG_INFO_LVL); 
    3f2a:	2000      	movs	r0, #0
    3f2c:	4b24      	ldr	r3, [pc, #144]	; (3fc0 <main+0xcc>)
    3f2e:	4798      	blx	r3
	LogMessage(LOG_INFO_LVL , "%s", string); 
    3f30:	1d3a      	adds	r2, r7, #4
    3f32:	4b24      	ldr	r3, [pc, #144]	; (3fc4 <main+0xd0>)
    3f34:	0019      	movs	r1, r3
    3f36:	2000      	movs	r0, #0
    3f38:	4b23      	ldr	r3, [pc, #140]	; (3fc8 <main+0xd4>)
    3f3a:	4798      	blx	r3
	setLogLevel(LOG_ERROR_LVL); //Sets the Debug Logger to only allow messages with LOG_ERROR_LVL or higher to be printed
    3f3c:	2003      	movs	r0, #3
    3f3e:	4b20      	ldr	r3, [pc, #128]	; (3fc0 <main+0xcc>)
    3f40:	4798      	blx	r3
	LogMessage(LOG_INFO_LVL, "Performing Temperature Test?r\n"); //This should NOT print
    3f42:	4b22      	ldr	r3, [pc, #136]	; (3fcc <main+0xd8>)
    3f44:	0019      	movs	r1, r3
    3f46:	2000      	movs	r0, #0
    3f48:	4b1f      	ldr	r3, [pc, #124]	; (3fc8 <main+0xd4>)
    3f4a:	4798      	blx	r3
	LogMessage(LOG_FATAL_LVL,"Error! Temperature over %d Degrees!\r\n", 55); //This should print
    3f4c:	4b20      	ldr	r3, [pc, #128]	; (3fd0 <main+0xdc>)
    3f4e:	2237      	movs	r2, #55	; 0x37
    3f50:	0019      	movs	r1, r3
    3f52:	2004      	movs	r0, #4
    3f54:	4b1c      	ldr	r3, [pc, #112]	; (3fc8 <main+0xd4>)
    3f56:	4798      	blx	r3

	int pwmState = 0;
    3f58:	2300      	movs	r3, #0
    3f5a:	627b      	str	r3, [r7, #36]	; 0x24
	/* This skeleton code simply sets the LED to the state of the button. */
	while (1) {

		/* Is button pressed? */
		if (port_pin_get_input_level(BUTTON_0_PIN) == BUTTON_0_ACTIVE) {
    3f5c:	2037      	movs	r0, #55	; 0x37
    3f5e:	4b1d      	ldr	r3, [pc, #116]	; (3fd4 <main+0xe0>)
    3f60:	4798      	blx	r3
    3f62:	0003      	movs	r3, r0
    3f64:	001a      	movs	r2, r3
    3f66:	2301      	movs	r3, #1
    3f68:	4053      	eors	r3, r2
    3f6a:	b2db      	uxtb	r3, r3
    3f6c:	2b00      	cmp	r3, #0
    3f6e:	d010      	beq.n	3f92 <main+0x9e>
			/* Yes, so turn LED on. */

			
				long newVal = 0xFFFFF/(2*10.922) * 1.5;
    3f70:	4b19      	ldr	r3, [pc, #100]	; (3fd8 <main+0xe4>)
    3f72:	623b      	str	r3, [r7, #32]
				tcc_disable(&tcc_instance);
    3f74:	4b19      	ldr	r3, [pc, #100]	; (3fdc <main+0xe8>)
    3f76:	0018      	movs	r0, r3
    3f78:	4b19      	ldr	r3, [pc, #100]	; (3fe0 <main+0xec>)
    3f7a:	4798      	blx	r3
				configure_tcc((uint32_t) newVal,  0xFFFFF/1.0921);
    3f7c:	6a3b      	ldr	r3, [r7, #32]
    3f7e:	4a09      	ldr	r2, [pc, #36]	; (3fa4 <main+0xb0>)
    3f80:	0011      	movs	r1, r2
    3f82:	0018      	movs	r0, r3
    3f84:	4b09      	ldr	r3, [pc, #36]	; (3fac <main+0xb8>)
    3f86:	4798      	blx	r3
				//delay_ms(100);
				//process_adc_get('A','2');

			port_pin_set_output_level(LED_0_PIN, LED_0_ACTIVE);
    3f88:	2100      	movs	r1, #0
    3f8a:	2017      	movs	r0, #23
    3f8c:	4b15      	ldr	r3, [pc, #84]	; (3fe4 <main+0xf0>)
    3f8e:	4798      	blx	r3
    3f90:	e7e4      	b.n	3f5c <main+0x68>
			
			
		} else {
			/* No, so turn LED off. */
			port_pin_set_output_level(LED_0_PIN, !LED_0_ACTIVE);
    3f92:	2101      	movs	r1, #1
    3f94:	2017      	movs	r0, #23
    3f96:	4b13      	ldr	r3, [pc, #76]	; (3fe4 <main+0xf0>)
    3f98:	4798      	blx	r3
		if (port_pin_get_input_level(BUTTON_0_PIN) == BUTTON_0_ACTIVE) {
    3f9a:	e7df      	b.n	3f5c <main+0x68>
    3f9c:	00003b79 	.word	0x00003b79
    3fa0:	000019c1 	.word	0x000019c1
    3fa4:	000ea691 	.word	0x000ea691
    3fa8:	00017705 	.word	0x00017705
    3fac:	00003e75 	.word	0x00003e75
    3fb0:	000043f8 	.word	0x000043f8
    3fb4:	00001a31 	.word	0x00001a31
    3fb8:	00002939 	.word	0x00002939
    3fbc:	00004464 	.word	0x00004464
    3fc0:	00001aad 	.word	0x00001aad
    3fc4:	00004418 	.word	0x00004418
    3fc8:	00001acd 	.word	0x00001acd
    3fcc:	0000441c 	.word	0x0000441c
    3fd0:	0000443c 	.word	0x0000443c
    3fd4:	00003d6d 	.word	0x00003d6d
    3fd8:	00011944 	.word	0x00011944
    3fdc:	20000384 	.word	0x20000384
    3fe0:	00003e35 	.word	0x00003e35
    3fe4:	00003db1 	.word	0x00003db1

00003fe8 <__udivsi3>:
    3fe8:	2200      	movs	r2, #0
    3fea:	0843      	lsrs	r3, r0, #1
    3fec:	428b      	cmp	r3, r1
    3fee:	d374      	bcc.n	40da <__udivsi3+0xf2>
    3ff0:	0903      	lsrs	r3, r0, #4
    3ff2:	428b      	cmp	r3, r1
    3ff4:	d35f      	bcc.n	40b6 <__udivsi3+0xce>
    3ff6:	0a03      	lsrs	r3, r0, #8
    3ff8:	428b      	cmp	r3, r1
    3ffa:	d344      	bcc.n	4086 <__udivsi3+0x9e>
    3ffc:	0b03      	lsrs	r3, r0, #12
    3ffe:	428b      	cmp	r3, r1
    4000:	d328      	bcc.n	4054 <__udivsi3+0x6c>
    4002:	0c03      	lsrs	r3, r0, #16
    4004:	428b      	cmp	r3, r1
    4006:	d30d      	bcc.n	4024 <__udivsi3+0x3c>
    4008:	22ff      	movs	r2, #255	; 0xff
    400a:	0209      	lsls	r1, r1, #8
    400c:	ba12      	rev	r2, r2
    400e:	0c03      	lsrs	r3, r0, #16
    4010:	428b      	cmp	r3, r1
    4012:	d302      	bcc.n	401a <__udivsi3+0x32>
    4014:	1212      	asrs	r2, r2, #8
    4016:	0209      	lsls	r1, r1, #8
    4018:	d065      	beq.n	40e6 <__udivsi3+0xfe>
    401a:	0b03      	lsrs	r3, r0, #12
    401c:	428b      	cmp	r3, r1
    401e:	d319      	bcc.n	4054 <__udivsi3+0x6c>
    4020:	e000      	b.n	4024 <__udivsi3+0x3c>
    4022:	0a09      	lsrs	r1, r1, #8
    4024:	0bc3      	lsrs	r3, r0, #15
    4026:	428b      	cmp	r3, r1
    4028:	d301      	bcc.n	402e <__udivsi3+0x46>
    402a:	03cb      	lsls	r3, r1, #15
    402c:	1ac0      	subs	r0, r0, r3
    402e:	4152      	adcs	r2, r2
    4030:	0b83      	lsrs	r3, r0, #14
    4032:	428b      	cmp	r3, r1
    4034:	d301      	bcc.n	403a <__udivsi3+0x52>
    4036:	038b      	lsls	r3, r1, #14
    4038:	1ac0      	subs	r0, r0, r3
    403a:	4152      	adcs	r2, r2
    403c:	0b43      	lsrs	r3, r0, #13
    403e:	428b      	cmp	r3, r1
    4040:	d301      	bcc.n	4046 <__udivsi3+0x5e>
    4042:	034b      	lsls	r3, r1, #13
    4044:	1ac0      	subs	r0, r0, r3
    4046:	4152      	adcs	r2, r2
    4048:	0b03      	lsrs	r3, r0, #12
    404a:	428b      	cmp	r3, r1
    404c:	d301      	bcc.n	4052 <__udivsi3+0x6a>
    404e:	030b      	lsls	r3, r1, #12
    4050:	1ac0      	subs	r0, r0, r3
    4052:	4152      	adcs	r2, r2
    4054:	0ac3      	lsrs	r3, r0, #11
    4056:	428b      	cmp	r3, r1
    4058:	d301      	bcc.n	405e <__udivsi3+0x76>
    405a:	02cb      	lsls	r3, r1, #11
    405c:	1ac0      	subs	r0, r0, r3
    405e:	4152      	adcs	r2, r2
    4060:	0a83      	lsrs	r3, r0, #10
    4062:	428b      	cmp	r3, r1
    4064:	d301      	bcc.n	406a <__udivsi3+0x82>
    4066:	028b      	lsls	r3, r1, #10
    4068:	1ac0      	subs	r0, r0, r3
    406a:	4152      	adcs	r2, r2
    406c:	0a43      	lsrs	r3, r0, #9
    406e:	428b      	cmp	r3, r1
    4070:	d301      	bcc.n	4076 <__udivsi3+0x8e>
    4072:	024b      	lsls	r3, r1, #9
    4074:	1ac0      	subs	r0, r0, r3
    4076:	4152      	adcs	r2, r2
    4078:	0a03      	lsrs	r3, r0, #8
    407a:	428b      	cmp	r3, r1
    407c:	d301      	bcc.n	4082 <__udivsi3+0x9a>
    407e:	020b      	lsls	r3, r1, #8
    4080:	1ac0      	subs	r0, r0, r3
    4082:	4152      	adcs	r2, r2
    4084:	d2cd      	bcs.n	4022 <__udivsi3+0x3a>
    4086:	09c3      	lsrs	r3, r0, #7
    4088:	428b      	cmp	r3, r1
    408a:	d301      	bcc.n	4090 <__udivsi3+0xa8>
    408c:	01cb      	lsls	r3, r1, #7
    408e:	1ac0      	subs	r0, r0, r3
    4090:	4152      	adcs	r2, r2
    4092:	0983      	lsrs	r3, r0, #6
    4094:	428b      	cmp	r3, r1
    4096:	d301      	bcc.n	409c <__udivsi3+0xb4>
    4098:	018b      	lsls	r3, r1, #6
    409a:	1ac0      	subs	r0, r0, r3
    409c:	4152      	adcs	r2, r2
    409e:	0943      	lsrs	r3, r0, #5
    40a0:	428b      	cmp	r3, r1
    40a2:	d301      	bcc.n	40a8 <__udivsi3+0xc0>
    40a4:	014b      	lsls	r3, r1, #5
    40a6:	1ac0      	subs	r0, r0, r3
    40a8:	4152      	adcs	r2, r2
    40aa:	0903      	lsrs	r3, r0, #4
    40ac:	428b      	cmp	r3, r1
    40ae:	d301      	bcc.n	40b4 <__udivsi3+0xcc>
    40b0:	010b      	lsls	r3, r1, #4
    40b2:	1ac0      	subs	r0, r0, r3
    40b4:	4152      	adcs	r2, r2
    40b6:	08c3      	lsrs	r3, r0, #3
    40b8:	428b      	cmp	r3, r1
    40ba:	d301      	bcc.n	40c0 <__udivsi3+0xd8>
    40bc:	00cb      	lsls	r3, r1, #3
    40be:	1ac0      	subs	r0, r0, r3
    40c0:	4152      	adcs	r2, r2
    40c2:	0883      	lsrs	r3, r0, #2
    40c4:	428b      	cmp	r3, r1
    40c6:	d301      	bcc.n	40cc <__udivsi3+0xe4>
    40c8:	008b      	lsls	r3, r1, #2
    40ca:	1ac0      	subs	r0, r0, r3
    40cc:	4152      	adcs	r2, r2
    40ce:	0843      	lsrs	r3, r0, #1
    40d0:	428b      	cmp	r3, r1
    40d2:	d301      	bcc.n	40d8 <__udivsi3+0xf0>
    40d4:	004b      	lsls	r3, r1, #1
    40d6:	1ac0      	subs	r0, r0, r3
    40d8:	4152      	adcs	r2, r2
    40da:	1a41      	subs	r1, r0, r1
    40dc:	d200      	bcs.n	40e0 <__udivsi3+0xf8>
    40de:	4601      	mov	r1, r0
    40e0:	4152      	adcs	r2, r2
    40e2:	4610      	mov	r0, r2
    40e4:	4770      	bx	lr
    40e6:	e7ff      	b.n	40e8 <__udivsi3+0x100>
    40e8:	b501      	push	{r0, lr}
    40ea:	2000      	movs	r0, #0
    40ec:	f000 f806 	bl	40fc <__aeabi_idiv0>
    40f0:	bd02      	pop	{r1, pc}
    40f2:	46c0      	nop			; (mov r8, r8)

000040f4 <__aeabi_uidivmod>:
    40f4:	2900      	cmp	r1, #0
    40f6:	d0f7      	beq.n	40e8 <__udivsi3+0x100>
    40f8:	e776      	b.n	3fe8 <__udivsi3>
    40fa:	4770      	bx	lr

000040fc <__aeabi_idiv0>:
    40fc:	4770      	bx	lr
    40fe:	46c0      	nop			; (mov r8, r8)

00004100 <__aeabi_lmul>:
    4100:	b5f0      	push	{r4, r5, r6, r7, lr}
    4102:	46ce      	mov	lr, r9
    4104:	4647      	mov	r7, r8
    4106:	0415      	lsls	r5, r2, #16
    4108:	0c2d      	lsrs	r5, r5, #16
    410a:	002e      	movs	r6, r5
    410c:	b580      	push	{r7, lr}
    410e:	0407      	lsls	r7, r0, #16
    4110:	0c14      	lsrs	r4, r2, #16
    4112:	0c3f      	lsrs	r7, r7, #16
    4114:	4699      	mov	r9, r3
    4116:	0c03      	lsrs	r3, r0, #16
    4118:	437e      	muls	r6, r7
    411a:	435d      	muls	r5, r3
    411c:	4367      	muls	r7, r4
    411e:	4363      	muls	r3, r4
    4120:	197f      	adds	r7, r7, r5
    4122:	0c34      	lsrs	r4, r6, #16
    4124:	19e4      	adds	r4, r4, r7
    4126:	469c      	mov	ip, r3
    4128:	42a5      	cmp	r5, r4
    412a:	d903      	bls.n	4134 <__aeabi_lmul+0x34>
    412c:	2380      	movs	r3, #128	; 0x80
    412e:	025b      	lsls	r3, r3, #9
    4130:	4698      	mov	r8, r3
    4132:	44c4      	add	ip, r8
    4134:	464b      	mov	r3, r9
    4136:	4351      	muls	r1, r2
    4138:	4343      	muls	r3, r0
    413a:	0436      	lsls	r6, r6, #16
    413c:	0c36      	lsrs	r6, r6, #16
    413e:	0c25      	lsrs	r5, r4, #16
    4140:	0424      	lsls	r4, r4, #16
    4142:	4465      	add	r5, ip
    4144:	19a4      	adds	r4, r4, r6
    4146:	1859      	adds	r1, r3, r1
    4148:	1949      	adds	r1, r1, r5
    414a:	0020      	movs	r0, r4
    414c:	bc0c      	pop	{r2, r3}
    414e:	4690      	mov	r8, r2
    4150:	4699      	mov	r9, r3
    4152:	bdf0      	pop	{r4, r5, r6, r7, pc}

00004154 <__libc_init_array>:
    4154:	b570      	push	{r4, r5, r6, lr}
    4156:	2600      	movs	r6, #0
    4158:	4d0c      	ldr	r5, [pc, #48]	; (418c <__libc_init_array+0x38>)
    415a:	4c0d      	ldr	r4, [pc, #52]	; (4190 <__libc_init_array+0x3c>)
    415c:	1b64      	subs	r4, r4, r5
    415e:	10a4      	asrs	r4, r4, #2
    4160:	42a6      	cmp	r6, r4
    4162:	d109      	bne.n	4178 <__libc_init_array+0x24>
    4164:	2600      	movs	r6, #0
    4166:	f000 f9bb 	bl	44e0 <_init>
    416a:	4d0a      	ldr	r5, [pc, #40]	; (4194 <__libc_init_array+0x40>)
    416c:	4c0a      	ldr	r4, [pc, #40]	; (4198 <__libc_init_array+0x44>)
    416e:	1b64      	subs	r4, r4, r5
    4170:	10a4      	asrs	r4, r4, #2
    4172:	42a6      	cmp	r6, r4
    4174:	d105      	bne.n	4182 <__libc_init_array+0x2e>
    4176:	bd70      	pop	{r4, r5, r6, pc}
    4178:	00b3      	lsls	r3, r6, #2
    417a:	58eb      	ldr	r3, [r5, r3]
    417c:	4798      	blx	r3
    417e:	3601      	adds	r6, #1
    4180:	e7ee      	b.n	4160 <__libc_init_array+0xc>
    4182:	00b3      	lsls	r3, r6, #2
    4184:	58eb      	ldr	r3, [r5, r3]
    4186:	4798      	blx	r3
    4188:	3601      	adds	r6, #1
    418a:	e7f2      	b.n	4172 <__libc_init_array+0x1e>
    418c:	000044ec 	.word	0x000044ec
    4190:	000044ec 	.word	0x000044ec
    4194:	000044ec 	.word	0x000044ec
    4198:	000044f0 	.word	0x000044f0

0000419c <malloc>:
    419c:	b510      	push	{r4, lr}
    419e:	4b03      	ldr	r3, [pc, #12]	; (41ac <malloc+0x10>)
    41a0:	0001      	movs	r1, r0
    41a2:	6818      	ldr	r0, [r3, #0]
    41a4:	f000 f804 	bl	41b0 <_malloc_r>
    41a8:	bd10      	pop	{r4, pc}
    41aa:	46c0      	nop			; (mov r8, r8)
    41ac:	2000000c 	.word	0x2000000c

000041b0 <_malloc_r>:
    41b0:	2303      	movs	r3, #3
    41b2:	b570      	push	{r4, r5, r6, lr}
    41b4:	1ccd      	adds	r5, r1, #3
    41b6:	439d      	bics	r5, r3
    41b8:	3508      	adds	r5, #8
    41ba:	0006      	movs	r6, r0
    41bc:	2d0c      	cmp	r5, #12
    41be:	d21e      	bcs.n	41fe <_malloc_r+0x4e>
    41c0:	250c      	movs	r5, #12
    41c2:	42a9      	cmp	r1, r5
    41c4:	d81d      	bhi.n	4202 <_malloc_r+0x52>
    41c6:	0030      	movs	r0, r6
    41c8:	f000 f869 	bl	429e <__malloc_lock>
    41cc:	4a25      	ldr	r2, [pc, #148]	; (4264 <_malloc_r+0xb4>)
    41ce:	6814      	ldr	r4, [r2, #0]
    41d0:	0021      	movs	r1, r4
    41d2:	2900      	cmp	r1, #0
    41d4:	d119      	bne.n	420a <_malloc_r+0x5a>
    41d6:	4c24      	ldr	r4, [pc, #144]	; (4268 <_malloc_r+0xb8>)
    41d8:	6823      	ldr	r3, [r4, #0]
    41da:	2b00      	cmp	r3, #0
    41dc:	d103      	bne.n	41e6 <_malloc_r+0x36>
    41de:	0030      	movs	r0, r6
    41e0:	f000 f844 	bl	426c <_sbrk_r>
    41e4:	6020      	str	r0, [r4, #0]
    41e6:	0029      	movs	r1, r5
    41e8:	0030      	movs	r0, r6
    41ea:	f000 f83f 	bl	426c <_sbrk_r>
    41ee:	1c43      	adds	r3, r0, #1
    41f0:	d12c      	bne.n	424c <_malloc_r+0x9c>
    41f2:	230c      	movs	r3, #12
    41f4:	0030      	movs	r0, r6
    41f6:	6033      	str	r3, [r6, #0]
    41f8:	f000 f852 	bl	42a0 <__malloc_unlock>
    41fc:	e003      	b.n	4206 <_malloc_r+0x56>
    41fe:	2d00      	cmp	r5, #0
    4200:	dadf      	bge.n	41c2 <_malloc_r+0x12>
    4202:	230c      	movs	r3, #12
    4204:	6033      	str	r3, [r6, #0]
    4206:	2000      	movs	r0, #0
    4208:	bd70      	pop	{r4, r5, r6, pc}
    420a:	680b      	ldr	r3, [r1, #0]
    420c:	1b5b      	subs	r3, r3, r5
    420e:	d41a      	bmi.n	4246 <_malloc_r+0x96>
    4210:	2b0b      	cmp	r3, #11
    4212:	d903      	bls.n	421c <_malloc_r+0x6c>
    4214:	600b      	str	r3, [r1, #0]
    4216:	18cc      	adds	r4, r1, r3
    4218:	6025      	str	r5, [r4, #0]
    421a:	e003      	b.n	4224 <_malloc_r+0x74>
    421c:	428c      	cmp	r4, r1
    421e:	d10e      	bne.n	423e <_malloc_r+0x8e>
    4220:	6863      	ldr	r3, [r4, #4]
    4222:	6013      	str	r3, [r2, #0]
    4224:	0030      	movs	r0, r6
    4226:	f000 f83b 	bl	42a0 <__malloc_unlock>
    422a:	0020      	movs	r0, r4
    422c:	2207      	movs	r2, #7
    422e:	300b      	adds	r0, #11
    4230:	1d23      	adds	r3, r4, #4
    4232:	4390      	bics	r0, r2
    4234:	1ac3      	subs	r3, r0, r3
    4236:	d0e7      	beq.n	4208 <_malloc_r+0x58>
    4238:	425a      	negs	r2, r3
    423a:	50e2      	str	r2, [r4, r3]
    423c:	e7e4      	b.n	4208 <_malloc_r+0x58>
    423e:	684b      	ldr	r3, [r1, #4]
    4240:	6063      	str	r3, [r4, #4]
    4242:	000c      	movs	r4, r1
    4244:	e7ee      	b.n	4224 <_malloc_r+0x74>
    4246:	000c      	movs	r4, r1
    4248:	6849      	ldr	r1, [r1, #4]
    424a:	e7c2      	b.n	41d2 <_malloc_r+0x22>
    424c:	2303      	movs	r3, #3
    424e:	1cc4      	adds	r4, r0, #3
    4250:	439c      	bics	r4, r3
    4252:	42a0      	cmp	r0, r4
    4254:	d0e0      	beq.n	4218 <_malloc_r+0x68>
    4256:	1a21      	subs	r1, r4, r0
    4258:	0030      	movs	r0, r6
    425a:	f000 f807 	bl	426c <_sbrk_r>
    425e:	1c43      	adds	r3, r0, #1
    4260:	d1da      	bne.n	4218 <_malloc_r+0x68>
    4262:	e7c6      	b.n	41f2 <_malloc_r+0x42>
    4264:	200000cc 	.word	0x200000cc
    4268:	200000d0 	.word	0x200000d0

0000426c <_sbrk_r>:
    426c:	2300      	movs	r3, #0
    426e:	b570      	push	{r4, r5, r6, lr}
    4270:	4c06      	ldr	r4, [pc, #24]	; (428c <_sbrk_r+0x20>)
    4272:	0005      	movs	r5, r0
    4274:	0008      	movs	r0, r1
    4276:	6023      	str	r3, [r4, #0]
    4278:	f7ff fd18 	bl	3cac <_sbrk>
    427c:	1c43      	adds	r3, r0, #1
    427e:	d103      	bne.n	4288 <_sbrk_r+0x1c>
    4280:	6823      	ldr	r3, [r4, #0]
    4282:	2b00      	cmp	r3, #0
    4284:	d000      	beq.n	4288 <_sbrk_r+0x1c>
    4286:	602b      	str	r3, [r5, #0]
    4288:	bd70      	pop	{r4, r5, r6, pc}
    428a:	46c0      	nop			; (mov r8, r8)
    428c:	200004cc 	.word	0x200004cc

00004290 <strlen>:
    4290:	2300      	movs	r3, #0
    4292:	5cc2      	ldrb	r2, [r0, r3]
    4294:	3301      	adds	r3, #1
    4296:	2a00      	cmp	r2, #0
    4298:	d1fb      	bne.n	4292 <strlen+0x2>
    429a:	1e58      	subs	r0, r3, #1
    429c:	4770      	bx	lr

0000429e <__malloc_lock>:
    429e:	4770      	bx	lr

000042a0 <__malloc_unlock>:
    42a0:	4770      	bx	lr
    42a2:	0000      	movs	r0, r0
    42a4:	42000800 	.word	0x42000800
    42a8:	42000c00 	.word	0x42000c00
    42ac:	42001000 	.word	0x42001000
    42b0:	42001400 	.word	0x42001400
    42b4:	42001800 	.word	0x42001800
    42b8:	42001c00 	.word	0x42001c00

000042bc <tcc_modules>:
    42bc:	42002000 42002400 42002800              . .B.$.B.(.B

000042c8 <_tcc_gclk_ids>:
    42c8:	001b1a1a                                ....

000042cc <_tcc_apbcmasks>:
    42cc:	00000100 00000200 00000400              ............

000042d8 <_tcc_maxs>:
    42d8:	00ffffff 00ffffff 0000ffff              ............

000042e4 <_tcc_cc_nums>:
    42e4:	00020204                                ....

000042e8 <_tcc_ow_nums>:
    42e8:	00020408                                ....

000042ec <_tcc_intflag>:
    42ec:	00000001 00000002 00000004 00000008     ................
    42fc:	00001000 00002000 00004000 00008000     ..... ...@......
    430c:	00010000 00020000 00040000 00080000     ................
    431c:	0c0b0a09 00000e0d 00002e1e 00002e98     ................
    432c:	00002e98 00002e3c 00002e36 00002e42     ....<...6...B...
    433c:	00002e24 00002e48 00002e7e 00003164     $...H...~...d1..
    434c:	000031b4 000031b4 000031b0 00003156     .1...1...1..V1..
    435c:	00003176 00003146 00003188 0000319a     v1..F1...1...1..
    436c:	00003202 00003230 00003230 0000322c     .2..02..02..,2..
    437c:	000031fc 00003208 000031f6 0000320e     .1...2...1...2..
    438c:	00003214 44410a0d 6f632043 7265766e     .2....ADC conver
    439c:	6e6f6973 6425203a 000a0d20 74726f50     sion: %d ...Port
    43ac:	50202620 63206e69 69626d6f 6974616e      & Pin combinati
    43bc:	6e206e6f 6120746f 6c696176 656c6261     on not available
    43cc:	726f6620 64612720 65675f63 202e2774      for 'adc_get'. 
    43dc:	61656c50 63206573 736f6f68 32412065     Please choose A2
    43ec:	20726f20 0d2e3341 0000000a 35455345      or A3......ESE5
    43fc:	2d203631 494c4320 646e6120 62654420     16 - CLI and Deb
    440c:	4c206775 6567676f 000a0d72 00007325     ug Logger...%s..
    441c:	66726550 696d726f 5420676e 65706d65     Performing Tempe
    442c:	75746172 54206572 3f747365 00000a72     rature Test?r...
    443c:	6f727245 54202172 65706d65 75746172     Error! Temperatu
    444c:	6f206572 20726576 44206425 65726765     re over %d Degre
    445c:	0d217365 0000000a 20494c43 72617473     es!.....CLI star
    446c:	20726574 65646f63 45202d20 31354553     ter code - ESE51
    447c:	000a0d36                                6...

00004480 <__sf_fake_stderr>:
	...

000044a0 <__sf_fake_stdin>:
	...

000044c0 <__sf_fake_stdout>:
	...

000044e0 <_init>:
    44e0:	b5f8      	push	{r3, r4, r5, r6, r7, lr}
    44e2:	46c0      	nop			; (mov r8, r8)
    44e4:	bcf8      	pop	{r3, r4, r5, r6, r7}
    44e6:	bc08      	pop	{r3}
    44e8:	469e      	mov	lr, r3
    44ea:	4770      	bx	lr

000044ec <__init_array_start>:
    44ec:	000000dd 	.word	0x000000dd

000044f0 <_fini>:
    44f0:	b5f8      	push	{r3, r4, r5, r6, r7, lr}
    44f2:	46c0      	nop			; (mov r8, r8)
    44f4:	bcf8      	pop	{r3, r4, r5, r6, r7}
    44f6:	bc08      	pop	{r3}
    44f8:	469e      	mov	lr, r3
    44fa:	4770      	bx	lr

000044fc <__fini_array_start>:
    44fc:	000000b5 	.word	0x000000b5
